ARM GAS  C:\Users\Austina\AppData\Local\Temp\ccmbhoja.s 			page 1


   1              		.syntax unified
   2              		.cpu cortex-m4
   3              		.eabi_attribute 27, 1
   4              		.fpu fpv4-sp-d16
   5              		.eabi_attribute 20, 1
   6              		.eabi_attribute 21, 1
   7              		.eabi_attribute 23, 3
   8              		.eabi_attribute 24, 1
   9              		.eabi_attribute 25, 1
  10              		.eabi_attribute 26, 1
  11              		.eabi_attribute 30, 1
  12              		.eabi_attribute 34, 1
  13              		.eabi_attribute 18, 4
  14              		.thumb
  15              		.syntax unified
  16              		.file	"BLETask.c"
  17              		.text
  18              	.Ltext0:
  19              		.cfi_sections	.debug_frame
  20              		.section	.text.bleInterruptNotify,"ax",%progbits
  21              		.align	2
  22              		.global	bleInterruptNotify
  23              		.thumb
  24              		.thumb_func
  25              		.type	bleInterruptNotify, %function
  26              	bleInterruptNotify:
  27              	.LFB534:
  28              		.file 1 "BLETask.c"
   1:BLETask.c     **** /* ========================================
   2:BLETask.c     ****  *
   3:BLETask.c     ****  * Copyright YOUR COMPANY, THE YEAR
   4:BLETask.c     ****  * All Rights Reserved
   5:BLETask.c     ****  * UNPUBLISHED, LICENSED SOFTWARE.
   6:BLETask.c     ****  *
   7:BLETask.c     ****  * CONFIDENTIAL AND PROPRIETARY INFORMATION
   8:BLETask.c     ****  * WHICH IS THE PROPERTY OF your company.
   9:BLETask.c     ****  *
  10:BLETask.c     ****  * ========================================
  11:BLETask.c     **** */
  12:BLETask.c     **** 
  13:BLETask.c     **** #include "BLETask.h"
  14:BLETask.c     **** 
  15:BLETask.c     **** //#define BLE_PACKET_DEBUG_ENABLE
  16:BLETask.c     **** SemaphoreHandle_t bleSemaphore;
  17:BLETask.c     **** 
  18:BLETask.c     **** static uint8_t bleConnectionStatus = false;
  19:BLETask.c     **** 
  20:BLETask.c     **** motorToControl_t motorToControl[MOTORS_TO_CONTROL_MAX] = {
  21:BLETask.c     ****     {M1, POS_ABSOLUTE,CY_BLE_CUSTOMC_MOTOR_M1_CHAR_INDEX},
  22:BLETask.c     ****     {M1, POS_RELATIVE,CY_BLE_CUSTOMC_MOTOR_M1_REL_CHAR_INDEX},
  23:BLETask.c     ****     {M2, POS_ABSOLUTE,CY_BLE_CUSTOMC_MOTOR_M2_CHAR_INDEX},
  24:BLETask.c     ****     {M2, POS_RELATIVE,CY_BLE_CUSTOMC_MOTOR_M2_REL_CHAR_INDEX},
  25:BLETask.c     ****     {M3, POS_ABSOLUTE,CY_BLE_CUSTOMC_MOTOR_M3_CHAR_INDEX},
  26:BLETask.c     ****     {M3, POS_RELATIVE,CY_BLE_CUSTOMC_MOTOR_M3_REL_CHAR_INDEX},
  27:BLETask.c     ****     {M4, POS_ABSOLUTE,CY_BLE_CUSTOMC_MOTOR_M4_CHAR_INDEX},
  28:BLETask.c     ****     {M4, POS_RELATIVE,CY_BLE_CUSTOMC_MOTOR_M4_REL_CHAR_INDEX}
  29:BLETask.c     **** };
ARM GAS  C:\Users\Austina\AppData\Local\Temp\ccmbhoja.s 			page 2


  30:BLETask.c     **** 
  31:BLETask.c     **** uint8_t bleConnectionState()
  32:BLETask.c     **** {
  33:BLETask.c     ****     return bleConnectionStatus;
  34:BLETask.c     **** }
  35:BLETask.c     **** 
  36:BLETask.c     **** void writeMotorPosition(motors_t motor,motor_change_t type,uint8_t percent)
  37:BLETask.c     **** {
  38:BLETask.c     ****     if(Cy_BLE_GetConnectionState(cy_ble_connHandle[0]) != CY_BLE_CONN_STATE_CLIENT_DISCOVERED)
  39:BLETask.c     ****     {
  40:BLETask.c     ****         ble_print("Not connected");
  41:BLETask.c     ****         return;
  42:BLETask.c     ****     }
  43:BLETask.c     ****     
  44:BLETask.c     ****     //ble_printf("Motor = %d\tType = %d\tpercent = %d",motor+1,type,percent);
  45:BLETask.c     ****     
  46:BLETask.c     ****     cy_stc_ble_gattc_write_req_t myVal;
  47:BLETask.c     ****       
  48:BLETask.c     ****     
  49:BLETask.c     ****     for(int i = 0; i < MOTORS_TO_CONTROL_MAX; i++)
  50:BLETask.c     ****     {
  51:BLETask.c     ****         if((motor == motorToControl[i].motor) && (type == motorToControl[i].type))
  52:BLETask.c     ****         {
  53:BLETask.c     ****             myVal.handleValPair.attrHandle = cy_ble_customCServ[CY_BLE_CUSTOMC_MOTOR_SERVICE_INDEX]
  54:BLETask.c     ****         }
  55:BLETask.c     ****         
  56:BLETask.c     ****     }
  57:BLETask.c     ****     
  58:BLETask.c     ****     myVal.handleValPair.value.len = 1;
  59:BLETask.c     ****     myVal.handleValPair.value.val = (uint8_t *)&percent;
  60:BLETask.c     ****     #ifdef BLE_PACKET_DEBUG_ENABLE
  61:BLETask.c     ****     ble_printf("Sent data %d",*(myVal.handleValPair.value.val));
  62:BLETask.c     ****     #endif
  63:BLETask.c     ****     myVal.connHandle = cy_ble_connHandle[0];
  64:BLETask.c     ****     
  65:BLETask.c     ****     uint32_t i = 0;
  66:BLETask.c     ****     //wait for the data transfer to complete
  67:BLETask.c     ****     while(Cy_BLE_GATTC_WriteCharacteristicValue(&myVal) != CY_BLE_SUCCESS)
  68:BLETask.c     ****     {
  69:BLETask.c     ****         Cy_BLE_ProcessEvents();
  70:BLETask.c     ****         i++;
  71:BLETask.c     ****         if(i > 0xFFFE)
  72:BLETask.c     ****         {
  73:BLETask.c     ****             ble_print("BLE GATTC write error");
  74:BLETask.c     ****             return;
  75:BLETask.c     ****         }
  76:BLETask.c     ****     }
  77:BLETask.c     **** }
  78:BLETask.c     **** 
  79:BLETask.c     **** 
  80:BLETask.c     **** typedef struct{
  81:BLETask.c     ****     char * name;
  82:BLETask.c     ****     uint8_t * serviceUUID;
  83:BLETask.c     ****     int name_len;
  84:BLETask.c     ****     uint8_t servUUID_len;
  85:BLETask.c     **** }advInfo_t;
  86:BLETask.c     ****  
ARM GAS  C:\Users\Austina\AppData\Local\Temp\ccmbhoja.s 			page 3


  87:BLETask.c     **** advInfo_t currentAdvInfo;
  88:BLETask.c     **** 
  89:BLETask.c     **** void findAdvInfo(uint8_t*adv,uint8_t len)
  90:BLETask.c     **** {
  91:BLETask.c     ****     memset (&currentAdvInfo,0,sizeof(currentAdvInfo));
  92:BLETask.c     ****     
  93:BLETask.c     ****     for(uint8_t i = 0; i< len;)
  94:BLETask.c     ****     {
  95:BLETask.c     ****         switch(adv[i+1])
  96:BLETask.c     ****         {
  97:BLETask.c     ****             //Service ID to check for the service uuid
  98:BLETask.c     ****             case 0x07:
  99:BLETask.c     ****                 currentAdvInfo.serviceUUID = &adv[i+2];
 100:BLETask.c     ****                 currentAdvInfo.servUUID_len = adv[i]-1;
 101:BLETask.c     ****                 break;
 102:BLETask.c     ****             
 103:BLETask.c     ****             //Peripheral advertiser name
 104:BLETask.c     ****             case 0x09:
 105:BLETask.c     ****                 currentAdvInfo.name = (char*)&adv[i+2];                
 106:BLETask.c     ****                 currentAdvInfo.name_len = adv[i]-1;
 107:BLETask.c     ****             break;
 108:BLETask.c     ****             default:
 109:BLETask.c     ****             break;
 110:BLETask.c     ****                 
 111:BLETask.c     ****         }
 112:BLETask.c     ****         //if packet id does not match, then skip the whole packet by adding i with length
 113:BLETask.c     ****         i = i +  adv[i] + 1;
 114:BLETask.c     ****     }
 115:BLETask.c     **** }
 116:BLETask.c     **** 
 117:BLETask.c     **** void genericEventHandler(uint32_t event,void* eventParameter)
 118:BLETask.c     **** {
 119:BLETask.c     ****     switch(event)
 120:BLETask.c     ****     {
 121:BLETask.c     ****         case CY_BLE_EVT_STACK_ON:
 122:BLETask.c     ****         case CY_BLE_EVT_GAP_DEVICE_DISCONNECTED:
 123:BLETask.c     ****         ble_print("Make sure the peripheral BLE device is on");
 124:BLETask.c     ****         ble_print("Only once connected to the peripheral the data aquisition will begin.");
 125:BLETask.c     ****             ble_print("Starting Scan");
 126:BLETask.c     ****             //Start scan operation
 127:BLETask.c     ****             Cy_BLE_GAPC_StartScan(CY_BLE_SCANNING_FAST,0);
 128:BLETask.c     ****             //turn off the led
 129:BLETask.c     ****             Cy_GPIO_Set(GREEN_PORT,GREEN_NUM);
 130:BLETask.c     ****             Cy_GPIO_Clr(RED_PORT,RED_NUM);
 131:BLETask.c     ****         break;
 132:BLETask.c     ****         case CY_BLE_EVT_GAPC_SCAN_PROGRESS_RESULT:
 133:BLETask.c     ****             //Print out information about the device that was found
 134:BLETask.c     ****             ble_printer("\r");
 135:BLETask.c     ****             cy_stc_ble_gapc_adv_report_param_t *scanProgressParam = (cy_stc_ble_gapc_adv_report_par
 136:BLETask.c     ****             #ifdef BLE_PACKET_DEBUG_ENABLE
 137:BLETask.c     ****             printf("[ BLE ] : BD Addr = ");
 138:BLETask.c     ****             for(unsigned int i = 0; i < CY_BLE_BD_ADDR_SIZE;i++)
 139:BLETask.c     ****             {
 140:BLETask.c     ****                 printf("%02X ",scanProgressParam->peerBdAddr[i]);
 141:BLETask.c     ****             }
 142:BLETask.c     ****             printf("\r\n");
 143:BLETask.c     ****             ble_printf("Length = %d",scanProgressParam->dataLen);
ARM GAS  C:\Users\Austina\AppData\Local\Temp\ccmbhoja.s 			page 4


 144:BLETask.c     ****             #endif
 145:BLETask.c     ****             findAdvInfo(scanProgressParam->data,scanProgressParam->dataLen);
 146:BLETask.c     ****             
 147:BLETask.c     ****             if( (currentAdvInfo.servUUID_len > 0 )
 148:BLETask.c     ****                  && (memcmp(currentAdvInfo.serviceUUID,cy_ble_customCServ[CY_BLE_CUSTOMC_MOTOR_SERV
 149:BLETask.c     ****                   ,currentAdvInfo.servUUID_len) == 0))
 150:BLETask.c     ****             {
 151:BLETask.c     ****                 #ifdef BLE_PACKET_DEBUG_ENABLE
 152:BLETask.c     ****                 ble_print("Found MOTOR Service ");
 153:BLETask.c     ****                 #endif
 154:BLETask.c     ****                 ble_printf(" Device %.*s",currentAdvInfo.name_len,currentAdvInfo.name);
 155:BLETask.c     ****                 cy_stc_ble_bd_addr_t connectAddr;
 156:BLETask.c     ****                 memcpy(&connectAddr.bdAddr[0],&scanProgressParam->peerBdAddr[0],CY_BLE_BD_ADDR_SIZE
 157:BLETask.c     ****                 connectAddr.type = scanProgressParam->peerAddrType;
 158:BLETask.c     ****                 Cy_BLE_GAPC_ConnectDevice(&connectAddr,0);
 159:BLETask.c     ****                 Cy_BLE_GAPC_StopScan();
 160:BLETask.c     ****             }
 161:BLETask.c     ****                 
 162:BLETask.c     ****         break;
 163:BLETask.c     ****         case CY_BLE_EVT_GATT_DISCONNECT_IND:
 164:BLETask.c     ****             Cy_GPIO_Set(GREEN_PORT,GREEN_NUM);
 165:BLETask.c     ****             Cy_GPIO_Clr(RED_PORT,RED_NUM);
 166:BLETask.c     ****             bleConnectionStatus = false;
 167:BLETask.c     ****             ble_print("Disconnected");
 168:BLETask.c     ****         break;
 169:BLETask.c     ****         case CY_BLE_EVT_GATT_CONNECT_IND:
 170:BLETask.c     ****             Cy_GPIO_Clr(GREEN_PORT,GREEN_NUM);
 171:BLETask.c     ****             Cy_GPIO_Set(RED_PORT,RED_NUM);
 172:BLETask.c     ****             ble_print("Made a connection, starting service discovery");
 173:BLETask.c     ****             bleConnectionStatus = true;
 174:BLETask.c     ****             Cy_BLE_GATTC_StartDiscovery(cy_ble_connHandle[0]);
 175:BLETask.c     ****         break;
 176:BLETask.c     ****         
 177:BLETask.c     ****         case CY_BLE_EVT_GATTC_DISCOVERY_COMPLETE:
 178:BLETask.c     ****             ble_print("Discovery Complete");
 179:BLETask.c     ****         break;
 180:BLETask.c     ****             
 181:BLETask.c     ****         case CY_BLE_EVT_GATTC_ERROR_RSP:
 182:BLETask.c     ****             ble_print("GATTC Error Response");
 183:BLETask.c     ****         break;
 184:BLETask.c     ****             
 185:BLETask.c     ****         case CY_BLE_EVT_GATTC_WRITE_RSP:
 186:BLETask.c     ****     #ifdef BLE_PACKET_DEBUG_ENABLE
 187:BLETask.c     ****             ble_print("GATTC Write Succeeded");
 188:BLETask.c     ****     #endif
 189:BLETask.c     ****         break;
 190:BLETask.c     ****             
 191:BLETask.c     ****         default:
 192:BLETask.c     ****         break;
 193:BLETask.c     ****     }
 194:BLETask.c     **** }
 195:BLETask.c     **** 
 196:BLETask.c     **** 
 197:BLETask.c     **** 
 198:BLETask.c     **** void bleInterruptNotify()
 199:BLETask.c     **** {
  29              		.loc 1 199 0
ARM GAS  C:\Users\Austina\AppData\Local\Temp\ccmbhoja.s 			page 5


  30              		.cfi_startproc
  31              		@ args = 0, pretend = 0, frame = 8
  32              		@ frame_needed = 0, uses_anonymous_args = 0
  33 0000 00B5     		push	{lr}
  34              		.cfi_def_cfa_offset 4
  35              		.cfi_offset 14, -4
  36 0002 83B0     		sub	sp, sp, #12
  37              		.cfi_def_cfa_offset 16
 200:BLETask.c     ****     BaseType_t xHigherPriorityTaskWoken;
 201:BLETask.c     ****     xHigherPriorityTaskWoken = pdFALSE;
  38              		.loc 1 201 0
  39 0004 02A9     		add	r1, sp, #8
  40 0006 0023     		movs	r3, #0
  41 0008 41F8043D 		str	r3, [r1, #-4]!
 202:BLETask.c     ****     xSemaphoreGiveFromISR(bleSemaphore,&xHigherPriorityTaskWoken);
  42              		.loc 1 202 0
  43 000c 084B     		ldr	r3, .L4
  44 000e 1868     		ldr	r0, [r3]
  45 0010 FFF7FEFF 		bl	xQueueGiveFromISR
  46              	.LVL0:
 203:BLETask.c     ****     //This part does a context switch by calling the scheduler to go the task where the semaphore c
 204:BLETask.c     ****     portYIELD_FROM_ISR(xHigherPriorityTaskWoken);
  47              		.loc 1 204 0
  48 0014 019B     		ldr	r3, [sp, #4]
  49 0016 3BB1     		cbz	r3, .L1
  50              		.loc 1 204 0 is_stmt 0 discriminator 1
  51 0018 4FF08052 		mov	r2, #268435456
  52 001c 054B     		ldr	r3, .L4+4
  53 001e 1A60     		str	r2, [r3]
  54              		.syntax unified
  55              	@ 204 "BLETask.c" 1
  56 0020 BFF34F8F 		dsb
  57              	@ 0 "" 2
  58              	@ 204 "BLETask.c" 1
  59 0024 BFF36F8F 		isb
  60              	@ 0 "" 2
  61              		.thumb
  62              		.syntax unified
  63              	.L1:
 205:BLETask.c     ****     
 206:BLETask.c     **** }
  64              		.loc 1 206 0 is_stmt 1
  65 0028 03B0     		add	sp, sp, #12
  66              		.cfi_def_cfa_offset 4
  67              		@ sp needed
  68 002a 5DF804FB 		ldr	pc, [sp], #4
  69              	.L5:
  70 002e 00BF     		.align	2
  71              	.L4:
  72 0030 00000000 		.word	bleSemaphore
  73 0034 04ED00E0 		.word	-536810236
  74              		.cfi_endproc
  75              	.LFE534:
  76              		.size	bleInterruptNotify, .-bleInterruptNotify
  77              		.section	.text.bleConnectionState,"ax",%progbits
  78              		.align	2
  79              		.global	bleConnectionState
ARM GAS  C:\Users\Austina\AppData\Local\Temp\ccmbhoja.s 			page 6


  80              		.thumb
  81              		.thumb_func
  82              		.type	bleConnectionState, %function
  83              	bleConnectionState:
  84              	.LFB530:
  32:BLETask.c     ****     return bleConnectionStatus;
  85              		.loc 1 32 0
  86              		.cfi_startproc
  87              		@ args = 0, pretend = 0, frame = 0
  88              		@ frame_needed = 0, uses_anonymous_args = 0
  89              		@ link register save eliminated.
  34:BLETask.c     **** 
  90              		.loc 1 34 0
  91 0000 014B     		ldr	r3, .L7
  92 0002 1878     		ldrb	r0, [r3]	@ zero_extendqisi2
  93 0004 7047     		bx	lr
  94              	.L8:
  95 0006 00BF     		.align	2
  96              	.L7:
  97 0008 00000000 		.word	.LANCHOR0
  98              		.cfi_endproc
  99              	.LFE530:
 100              		.size	bleConnectionState, .-bleConnectionState
 101              		.section	.text.writeMotorPosition,"ax",%progbits
 102              		.align	2
 103              		.global	writeMotorPosition
 104              		.thumb
 105              		.thumb_func
 106              		.type	writeMotorPosition, %function
 107              	writeMotorPosition:
 108              	.LFB531:
  37:BLETask.c     ****     if(Cy_BLE_GetConnectionState(cy_ble_connHandle[0]) != CY_BLE_CONN_STATE_CLIENT_DISCOVERED)
 109              		.loc 1 37 0
 110              		.cfi_startproc
 111              		@ args = 0, pretend = 0, frame = 32
 112              		@ frame_needed = 0, uses_anonymous_args = 0
 113              	.LVL1:
 114 0000 30B5     		push	{r4, r5, lr}
 115              		.cfi_def_cfa_offset 12
 116              		.cfi_offset 4, -12
 117              		.cfi_offset 5, -8
 118              		.cfi_offset 14, -4
 119 0002 89B0     		sub	sp, sp, #36
 120              		.cfi_def_cfa_offset 48
 121 0004 8DF80720 		strb	r2, [sp, #7]
 122 0008 2B4B     		ldr	r3, .L21
 123 000a 1B88     		ldrh	r3, [r3]	@ unaligned
 124 000c ADF80C30 		strh	r3, [sp, #12]	@ unaligned
 125              	.LBB19:
 126              	.LBB20:
 127              		.file 2 "Generated_Source\\PSoC6\\pdl\\middleware/ble/cy_ble_gap.h"
   1:Generated_Source\PSoC6\pdl\middleware/ble/cy_ble_gap.h **** /***************************************************************************//**
   2:Generated_Source\PSoC6\pdl\middleware/ble/cy_ble_gap.h **** * \file cy_ble_gap.h
   3:Generated_Source\PSoC6\pdl\middleware/ble/cy_ble_gap.h **** * \version 2.70
   4:Generated_Source\PSoC6\pdl\middleware/ble/cy_ble_gap.h **** *
   5:Generated_Source\PSoC6\pdl\middleware/ble/cy_ble_gap.h **** * \brief
   6:Generated_Source\PSoC6\pdl\middleware/ble/cy_ble_gap.h **** *  Contains the prototypes and constants used in the BLE GAP profile.
ARM GAS  C:\Users\Austina\AppData\Local\Temp\ccmbhoja.s 			page 7


   7:Generated_Source\PSoC6\pdl\middleware/ble/cy_ble_gap.h **** *
   8:Generated_Source\PSoC6\pdl\middleware/ble/cy_ble_gap.h **** ********************************************************************************
   9:Generated_Source\PSoC6\pdl\middleware/ble/cy_ble_gap.h **** * \copyright
  10:Generated_Source\PSoC6\pdl\middleware/ble/cy_ble_gap.h **** * Copyright 2017-2021, Cypress Semiconductor Corporation.  All rights reserved.
  11:Generated_Source\PSoC6\pdl\middleware/ble/cy_ble_gap.h **** * You may use this file only in accordance with the license, terms, conditions,
  12:Generated_Source\PSoC6\pdl\middleware/ble/cy_ble_gap.h **** * disclaimers, and limitations in the end user license agreement accompanying
  13:Generated_Source\PSoC6\pdl\middleware/ble/cy_ble_gap.h **** * the software package with which this file was provided.
  14:Generated_Source\PSoC6\pdl\middleware/ble/cy_ble_gap.h **** *******************************************************************************/
  15:Generated_Source\PSoC6\pdl\middleware/ble/cy_ble_gap.h **** 
  16:Generated_Source\PSoC6\pdl\middleware/ble/cy_ble_gap.h **** 
  17:Generated_Source\PSoC6\pdl\middleware/ble/cy_ble_gap.h **** #ifndef CY_BLE_GAP_H
  18:Generated_Source\PSoC6\pdl\middleware/ble/cy_ble_gap.h **** #define CY_BLE_GAP_H
  19:Generated_Source\PSoC6\pdl\middleware/ble/cy_ble_gap.h **** 
  20:Generated_Source\PSoC6\pdl\middleware/ble/cy_ble_gap.h **** #include "cy_ble_config.h"
  21:Generated_Source\PSoC6\pdl\middleware/ble/cy_ble_gap.h **** 
  22:Generated_Source\PSoC6\pdl\middleware/ble/cy_ble_gap.h **** /***************************************
  23:Generated_Source\PSoC6\pdl\middleware/ble/cy_ble_gap.h **** * BLE Stack includes
  24:Generated_Source\PSoC6\pdl\middleware/ble/cy_ble_gap.h **** ***************************************/
  25:Generated_Source\PSoC6\pdl\middleware/ble/cy_ble_gap.h **** #include "cy_ble_stack_gatt.h"
  26:Generated_Source\PSoC6\pdl\middleware/ble/cy_ble_gap.h **** #include "cy_ble_stack_gap.h"
  27:Generated_Source\PSoC6\pdl\middleware/ble/cy_ble_gap.h **** #include "cy_ble_stack_gap_central.h"
  28:Generated_Source\PSoC6\pdl\middleware/ble/cy_ble_gap.h **** #include "cy_ble_stack_gap_peripheral.h"
  29:Generated_Source\PSoC6\pdl\middleware/ble/cy_ble_gap.h **** 
  30:Generated_Source\PSoC6\pdl\middleware/ble/cy_ble_gap.h **** /* C binding of definitions if building with C++ compiler */
  31:Generated_Source\PSoC6\pdl\middleware/ble/cy_ble_gap.h **** #ifdef __cplusplus
  32:Generated_Source\PSoC6\pdl\middleware/ble/cy_ble_gap.h **** extern "C" {
  33:Generated_Source\PSoC6\pdl\middleware/ble/cy_ble_gap.h **** #endif /* __cplusplus */
  34:Generated_Source\PSoC6\pdl\middleware/ble/cy_ble_gap.h **** 
  35:Generated_Source\PSoC6\pdl\middleware/ble/cy_ble_gap.h **** /***************************************
  36:Generated_Source\PSoC6\pdl\middleware/ble/cy_ble_gap.h **** * Conditional Compilation Parameters
  37:Generated_Source\PSoC6\pdl\middleware/ble/cy_ble_gap.h **** ***************************************/
  38:Generated_Source\PSoC6\pdl\middleware/ble/cy_ble_gap.h **** /**
  39:Generated_Source\PSoC6\pdl\middleware/ble/cy_ble_gap.h ****  * The BLE operation mode.
  40:Generated_Source\PSoC6\pdl\middleware/ble/cy_ble_gap.h ****  */
  41:Generated_Source\PSoC6\pdl\middleware/ble/cy_ble_gap.h **** #define CY_BLE_MODE                          (CY_BLE_CONFIG_MODE)
  42:Generated_Source\PSoC6\pdl\middleware/ble/cy_ble_gap.h **** 
  43:Generated_Source\PSoC6\pdl\middleware/ble/cy_ble_gap.h **** /**
  44:Generated_Source\PSoC6\pdl\middleware/ble/cy_ble_gap.h ****  * Maximum number of BLE connections
  45:Generated_Source\PSoC6\pdl\middleware/ble/cy_ble_gap.h ****  * This parameter displays how many BLE connections (both Central and
  46:Generated_Source\PSoC6\pdl\middleware/ble/cy_ble_gap.h ****  * Peripheral) are allowed. Valid range is from 1 to 4.
  47:Generated_Source\PSoC6\pdl\middleware/ble/cy_ble_gap.h ****  */
  48:Generated_Source\PSoC6\pdl\middleware/ble/cy_ble_gap.h **** #define CY_BLE_CONN_COUNT                    (CY_BLE_CONFIG_CONN_COUNT)
  49:Generated_Source\PSoC6\pdl\middleware/ble/cy_ble_gap.h **** 
  50:Generated_Source\PSoC6\pdl\middleware/ble/cy_ble_gap.h **** /**
  51:Generated_Source\PSoC6\pdl\middleware/ble/cy_ble_gap.h ****  * The GAP Role
  52:Generated_Source\PSoC6\pdl\middleware/ble/cy_ble_gap.h ****  * The following defined mask can be used:
  53:Generated_Source\PSoC6\pdl\middleware/ble/cy_ble_gap.h ****  * CY_BLE_GAP_PERIPHERAL  (0x01u) - device operates as peripheral.
  54:Generated_Source\PSoC6\pdl\middleware/ble/cy_ble_gap.h ****  * CY_BLE_GAP_CENTRAL     (0x02u) - device operates as central.
  55:Generated_Source\PSoC6\pdl\middleware/ble/cy_ble_gap.h ****  * CY_BLE_GAP_BROADCASTER (0x04u) - device operates as broadcaster.
  56:Generated_Source\PSoC6\pdl\middleware/ble/cy_ble_gap.h ****  * CY_BLE_GAP_OBSERVER    (0x08u) - device operates as observer.
  57:Generated_Source\PSoC6\pdl\middleware/ble/cy_ble_gap.h ****  * CY_BLE_GAP_HCI         (0x00u) - used when BLE operates in HCI mode.
  58:Generated_Source\PSoC6\pdl\middleware/ble/cy_ble_gap.h ****  */
  59:Generated_Source\PSoC6\pdl\middleware/ble/cy_ble_gap.h **** #define CY_BLE_GAP_ROLE                       (CY_BLE_CONFIG_GAP_ROLE)
  60:Generated_Source\PSoC6\pdl\middleware/ble/cy_ble_gap.h **** 
  61:Generated_Source\PSoC6\pdl\middleware/ble/cy_ble_gap.h **** /** The number of GAP Peripheral configurations structures */
  62:Generated_Source\PSoC6\pdl\middleware/ble/cy_ble_gap.h **** #define CY_BLE_GAP_PERIPHERAL_COUNT           (CY_BLE_CONFIG_GAP_PERIPHERAL_COUNT)
  63:Generated_Source\PSoC6\pdl\middleware/ble/cy_ble_gap.h **** 
ARM GAS  C:\Users\Austina\AppData\Local\Temp\ccmbhoja.s 			page 8


  64:Generated_Source\PSoC6\pdl\middleware/ble/cy_ble_gap.h **** /** The number of GAP Broadcaster configurations structures */
  65:Generated_Source\PSoC6\pdl\middleware/ble/cy_ble_gap.h **** #define CY_BLE_GAP_BROADCASTER_COUNT          (CY_BLE_CONFIG_GAP_BROADCASTER_COUNT)
  66:Generated_Source\PSoC6\pdl\middleware/ble/cy_ble_gap.h **** 
  67:Generated_Source\PSoC6\pdl\middleware/ble/cy_ble_gap.h **** /** The number of GAP Central configurations structures */
  68:Generated_Source\PSoC6\pdl\middleware/ble/cy_ble_gap.h **** #define CY_BLE_GAP_CENTRAL_COUNT              (CY_BLE_CONFIG_GAP_CENTRAL_COUNT)
  69:Generated_Source\PSoC6\pdl\middleware/ble/cy_ble_gap.h **** 
  70:Generated_Source\PSoC6\pdl\middleware/ble/cy_ble_gap.h **** /** The number of GAP Observer configurations structures */
  71:Generated_Source\PSoC6\pdl\middleware/ble/cy_ble_gap.h **** #define CY_BLE_GAP_OBSERVER_COUNT             (CY_BLE_CONFIG_GAP_OBSERVER_COUNT)
  72:Generated_Source\PSoC6\pdl\middleware/ble/cy_ble_gap.h **** 
  73:Generated_Source\PSoC6\pdl\middleware/ble/cy_ble_gap.h **** /** The number of Security configurations structures */
  74:Generated_Source\PSoC6\pdl\middleware/ble/cy_ble_gap.h **** #define CY_BLE_AUTH_INFO_COUNT                (CY_BLE_CONFIG_AUTH_INFO_COUNT)
  75:Generated_Source\PSoC6\pdl\middleware/ble/cy_ble_gap.h **** 
  76:Generated_Source\PSoC6\pdl\middleware/ble/cy_ble_gap.h **** /** The Bonding Requirement structures */
  77:Generated_Source\PSoC6\pdl\middleware/ble/cy_ble_gap.h **** #define CY_BLE_BONDING_REQUIREMENT            (CY_BLE_CONFIG_BONDING_REQUIREMENT)
  78:Generated_Source\PSoC6\pdl\middleware/ble/cy_ble_gap.h **** 
  79:Generated_Source\PSoC6\pdl\middleware/ble/cy_ble_gap.h **** /** The GAP Role defines */
  80:Generated_Source\PSoC6\pdl\middleware/ble/cy_ble_gap.h **** #define CY_BLE_GAP_ROLE_PERIPHERAL            (0u != (CY_BLE_GAP_ROLE & CY_BLE_GAP_PERIPHERAL))
  81:Generated_Source\PSoC6\pdl\middleware/ble/cy_ble_gap.h **** #define CY_BLE_GAP_ROLE_CENTRAL               (0u != (CY_BLE_GAP_ROLE & CY_BLE_GAP_CENTRAL))
  82:Generated_Source\PSoC6\pdl\middleware/ble/cy_ble_gap.h **** #define CY_BLE_GAP_ROLE_OBSERVER              (0u != (CY_BLE_GAP_ROLE & CY_BLE_GAP_OBSERVER))
  83:Generated_Source\PSoC6\pdl\middleware/ble/cy_ble_gap.h **** #define CY_BLE_GAP_ROLE_BROADCASTER           (0u != (CY_BLE_GAP_ROLE & CY_BLE_GAP_BROADCASTER))
  84:Generated_Source\PSoC6\pdl\middleware/ble/cy_ble_gap.h **** 
  85:Generated_Source\PSoC6\pdl\middleware/ble/cy_ble_gap.h **** #define CY_BLE_GAPP_CONF_COUNT                (CY_BLE_GAP_PERIPHERAL_COUNT + CY_BLE_GAP_BROADCASTER
  86:Generated_Source\PSoC6\pdl\middleware/ble/cy_ble_gap.h **** #define CY_BLE_GAPC_CONF_COUNT                (CY_BLE_GAP_CENTRAL_COUNT + CY_BLE_GAP_OBSERVER_COUNT
  87:Generated_Source\PSoC6\pdl\middleware/ble/cy_ble_gap.h **** 
  88:Generated_Source\PSoC6\pdl\middleware/ble/cy_ble_gap.h **** /***************************************
  89:Generated_Source\PSoC6\pdl\middleware/ble/cy_ble_gap.h **** * Type Definitions
  90:Generated_Source\PSoC6\pdl\middleware/ble/cy_ble_gap.h **** ***************************************/
  91:Generated_Source\PSoC6\pdl\middleware/ble/cy_ble_gap.h **** 
  92:Generated_Source\PSoC6\pdl\middleware/ble/cy_ble_gap.h **** #if (CY_BLE_MODE_PROFILE)
  93:Generated_Source\PSoC6\pdl\middleware/ble/cy_ble_gap.h **** 
  94:Generated_Source\PSoC6\pdl\middleware/ble/cy_ble_gap.h **** /***************************************
  95:Generated_Source\PSoC6\pdl\middleware/ble/cy_ble_gap.h **** * Enumerated Types and Structures
  96:Generated_Source\PSoC6\pdl\middleware/ble/cy_ble_gap.h **** ***************************************/
  97:Generated_Source\PSoC6\pdl\middleware/ble/cy_ble_gap.h **** 
  98:Generated_Source\PSoC6\pdl\middleware/ble/cy_ble_gap.h **** /**
  99:Generated_Source\PSoC6\pdl\middleware/ble/cy_ble_gap.h ****  * \addtogroup group_ble_common_api_gap_definitions
 100:Generated_Source\PSoC6\pdl\middleware/ble/cy_ble_gap.h ****  * @{
 101:Generated_Source\PSoC6\pdl\middleware/ble/cy_ble_gap.h ****  */
 102:Generated_Source\PSoC6\pdl\middleware/ble/cy_ble_gap.h **** 
 103:Generated_Source\PSoC6\pdl\middleware/ble/cy_ble_gap.h **** /** BLE state machine type */
 104:Generated_Source\PSoC6\pdl\middleware/ble/cy_ble_gap.h **** typedef enum
 105:Generated_Source\PSoC6\pdl\middleware/ble/cy_ble_gap.h **** {
 106:Generated_Source\PSoC6\pdl\middleware/ble/cy_ble_gap.h ****     CY_BLE_STATE_STOPPED,                             /**< BLE is turned off */
 107:Generated_Source\PSoC6\pdl\middleware/ble/cy_ble_gap.h ****     CY_BLE_STATE_INITIALIZING,                        /**< Initializing state */
 108:Generated_Source\PSoC6\pdl\middleware/ble/cy_ble_gap.h ****     CY_BLE_STATE_ON,                                  /**< BLE is turned on */
 109:Generated_Source\PSoC6\pdl\middleware/ble/cy_ble_gap.h **** #if (CY_BLE_GAP_ROLE_CENTRAL)
 110:Generated_Source\PSoC6\pdl\middleware/ble/cy_ble_gap.h ****     CY_BLE_STATE_CONNECTING,                          /**< Connecting */
 111:Generated_Source\PSoC6\pdl\middleware/ble/cy_ble_gap.h **** #endif /* CY_BLE_GAP_ROLE_CENTRAL */
 112:Generated_Source\PSoC6\pdl\middleware/ble/cy_ble_gap.h **** } cy_en_ble_state_t;
 113:Generated_Source\PSoC6\pdl\middleware/ble/cy_ble_gap.h **** 
 114:Generated_Source\PSoC6\pdl\middleware/ble/cy_ble_gap.h **** 
 115:Generated_Source\PSoC6\pdl\middleware/ble/cy_ble_gap.h **** /** Scanning state machine type */
 116:Generated_Source\PSoC6\pdl\middleware/ble/cy_ble_gap.h **** typedef enum
 117:Generated_Source\PSoC6\pdl\middleware/ble/cy_ble_gap.h **** {
 118:Generated_Source\PSoC6\pdl\middleware/ble/cy_ble_gap.h ****     CY_BLE_SCAN_STATE_STOPPED,                        /**< Scanning is stopped */
 119:Generated_Source\PSoC6\pdl\middleware/ble/cy_ble_gap.h ****     CY_BLE_SCAN_STATE_SCAN_INITIATED,                 /**< Scanning is initiated */
 120:Generated_Source\PSoC6\pdl\middleware/ble/cy_ble_gap.h ****     CY_BLE_SCAN_STATE_SCANNING,                       /**< Scanning process */
ARM GAS  C:\Users\Austina\AppData\Local\Temp\ccmbhoja.s 			page 9


 121:Generated_Source\PSoC6\pdl\middleware/ble/cy_ble_gap.h ****     CY_BLE_SCAN_STATE_STOP_INITIATED                  /**< Stop scanning is initiated */
 122:Generated_Source\PSoC6\pdl\middleware/ble/cy_ble_gap.h **** } cy_en_ble_scan_state_t;
 123:Generated_Source\PSoC6\pdl\middleware/ble/cy_ble_gap.h **** 
 124:Generated_Source\PSoC6\pdl\middleware/ble/cy_ble_gap.h **** /** Advertising state machine type */
 125:Generated_Source\PSoC6\pdl\middleware/ble/cy_ble_gap.h **** typedef enum
 126:Generated_Source\PSoC6\pdl\middleware/ble/cy_ble_gap.h **** {
 127:Generated_Source\PSoC6\pdl\middleware/ble/cy_ble_gap.h ****     CY_BLE_ADV_STATE_STOPPED,                         /**< Advertising is stopped */
 128:Generated_Source\PSoC6\pdl\middleware/ble/cy_ble_gap.h ****     CY_BLE_ADV_STATE_ADV_INITIATED,                   /**< Advertising is initiated */
 129:Generated_Source\PSoC6\pdl\middleware/ble/cy_ble_gap.h ****     CY_BLE_ADV_STATE_ADVERTISING,                     /**< Advertising process */
 130:Generated_Source\PSoC6\pdl\middleware/ble/cy_ble_gap.h ****     CY_BLE_ADV_STATE_STOP_INITIATED                   /**< Stop advertising is initiated */
 131:Generated_Source\PSoC6\pdl\middleware/ble/cy_ble_gap.h **** } cy_en_ble_adv_state_t;
 132:Generated_Source\PSoC6\pdl\middleware/ble/cy_ble_gap.h **** 
 133:Generated_Source\PSoC6\pdl\middleware/ble/cy_ble_gap.h **** /** Connection state machine type */
 134:Generated_Source\PSoC6\pdl\middleware/ble/cy_ble_gap.h **** typedef enum
 135:Generated_Source\PSoC6\pdl\middleware/ble/cy_ble_gap.h **** {
 136:Generated_Source\PSoC6\pdl\middleware/ble/cy_ble_gap.h ****     CY_BLE_CONN_STATE_DISCONNECTED,                   /**< Essentially idle state */
 137:Generated_Source\PSoC6\pdl\middleware/ble/cy_ble_gap.h ****     CY_BLE_CONN_STATE_CLIENT_DISCONNECTED_DISCOVERED, /**< Server is disconnected but discovered */
 138:Generated_Source\PSoC6\pdl\middleware/ble/cy_ble_gap.h ****     CY_BLE_CONN_STATE_CONNECTED,                      /**< Peer device is connected for this and fo
 139:Generated_Source\PSoC6\pdl\middleware/ble/cy_ble_gap.h ****     CY_BLE_CONN_STATE_CLIENT_SRVC_DISCOVERING,        /**< Server services are being discovered */
 140:Generated_Source\PSoC6\pdl\middleware/ble/cy_ble_gap.h ****     CY_BLE_CONN_STATE_CLIENT_INCL_DISCOVERING,        /**< Server included services are being disco
 141:Generated_Source\PSoC6\pdl\middleware/ble/cy_ble_gap.h ****     CY_BLE_CONN_STATE_CLIENT_CHAR_DISCOVERING,        /**< Server characteristics are being discove
 142:Generated_Source\PSoC6\pdl\middleware/ble/cy_ble_gap.h ****     CY_BLE_CONN_STATE_CLIENT_DESCR_DISCOVERING,       /**< Server char. descriptors are being disco
 143:Generated_Source\PSoC6\pdl\middleware/ble/cy_ble_gap.h ****     CY_BLE_CONN_STATE_CLIENT_DISCOVERED               /**< Server is discovered */
 144:Generated_Source\PSoC6\pdl\middleware/ble/cy_ble_gap.h **** } cy_en_ble_conn_state_t;
 145:Generated_Source\PSoC6\pdl\middleware/ble/cy_ble_gap.h **** 
 146:Generated_Source\PSoC6\pdl\middleware/ble/cy_ble_gap.h **** /** Structure with Generic Access Profile Service (GAPS) attribute handles */
 147:Generated_Source\PSoC6\pdl\middleware/ble/cy_ble_gap.h **** typedef struct
 148:Generated_Source\PSoC6\pdl\middleware/ble/cy_ble_gap.h **** {
 149:Generated_Source\PSoC6\pdl\middleware/ble/cy_ble_gap.h ****     /** Service handle*/
 150:Generated_Source\PSoC6\pdl\middleware/ble/cy_ble_gap.h ****     cy_ble_gatt_db_attr_handle_t serviceHandle;
 151:Generated_Source\PSoC6\pdl\middleware/ble/cy_ble_gap.h **** 
 152:Generated_Source\PSoC6\pdl\middleware/ble/cy_ble_gap.h ****     /** Handle of the GAPS Device Name Characteristic */
 153:Generated_Source\PSoC6\pdl\middleware/ble/cy_ble_gap.h ****     cy_ble_gatt_db_attr_handle_t deviceNameCharHandle;
 154:Generated_Source\PSoC6\pdl\middleware/ble/cy_ble_gap.h **** 
 155:Generated_Source\PSoC6\pdl\middleware/ble/cy_ble_gap.h ****     /** Handle of the GAPS Appearance Characteristic */
 156:Generated_Source\PSoC6\pdl\middleware/ble/cy_ble_gap.h ****     cy_ble_gatt_db_attr_handle_t appearanceCharHandle;
 157:Generated_Source\PSoC6\pdl\middleware/ble/cy_ble_gap.h **** 
 158:Generated_Source\PSoC6\pdl\middleware/ble/cy_ble_gap.h ****     /** Handle of the GAPS Peripheral Preferred Connection Parameters Characteristic */
 159:Generated_Source\PSoC6\pdl\middleware/ble/cy_ble_gap.h ****     cy_ble_gatt_db_attr_handle_t prefConnParamCharHandle;
 160:Generated_Source\PSoC6\pdl\middleware/ble/cy_ble_gap.h **** 
 161:Generated_Source\PSoC6\pdl\middleware/ble/cy_ble_gap.h ****     /** Handle of the GAPS Central Address Resolution characteristic */
 162:Generated_Source\PSoC6\pdl\middleware/ble/cy_ble_gap.h ****     cy_ble_gatt_db_attr_handle_t centralAddrResolutionCharHandle;
 163:Generated_Source\PSoC6\pdl\middleware/ble/cy_ble_gap.h **** 
 164:Generated_Source\PSoC6\pdl\middleware/ble/cy_ble_gap.h ****     /** Handle of the GAPS Resolvable Private Address Only characteristic */
 165:Generated_Source\PSoC6\pdl\middleware/ble/cy_ble_gap.h ****     cy_ble_gatt_db_attr_handle_t resolvablePrivateAddressOnly;
 166:Generated_Source\PSoC6\pdl\middleware/ble/cy_ble_gap.h **** } cy_stc_ble_gaps_t;
 167:Generated_Source\PSoC6\pdl\middleware/ble/cy_ble_gap.h **** 
 168:Generated_Source\PSoC6\pdl\middleware/ble/cy_ble_gap.h **** /** GAP Service characteristics server's GATT DB handles structure type */
 169:Generated_Source\PSoC6\pdl\middleware/ble/cy_ble_gap.h **** typedef struct
 170:Generated_Source\PSoC6\pdl\middleware/ble/cy_ble_gap.h **** {
 171:Generated_Source\PSoC6\pdl\middleware/ble/cy_ble_gap.h ****     /** Handle of the GAPS Device Name Characteristic */
 172:Generated_Source\PSoC6\pdl\middleware/ble/cy_ble_gap.h ****     cy_ble_gatt_db_attr_handle_t deviceNameCharHandle;
 173:Generated_Source\PSoC6\pdl\middleware/ble/cy_ble_gap.h **** 
 174:Generated_Source\PSoC6\pdl\middleware/ble/cy_ble_gap.h ****     /** Handle of the GAPS Appearance Characteristic */
 175:Generated_Source\PSoC6\pdl\middleware/ble/cy_ble_gap.h ****     cy_ble_gatt_db_attr_handle_t appearanceCharHandle;
 176:Generated_Source\PSoC6\pdl\middleware/ble/cy_ble_gap.h **** 
 177:Generated_Source\PSoC6\pdl\middleware/ble/cy_ble_gap.h ****     /** Handle of the GAPS Peripheral Privacy Flag Parameters Characteristic */
ARM GAS  C:\Users\Austina\AppData\Local\Temp\ccmbhoja.s 			page 10


 178:Generated_Source\PSoC6\pdl\middleware/ble/cy_ble_gap.h ****     cy_ble_gatt_db_attr_handle_t periphPrivacyCharHandle;
 179:Generated_Source\PSoC6\pdl\middleware/ble/cy_ble_gap.h **** 
 180:Generated_Source\PSoC6\pdl\middleware/ble/cy_ble_gap.h ****     /** Handle of the GAPS Reconnection Address Characteristic */
 181:Generated_Source\PSoC6\pdl\middleware/ble/cy_ble_gap.h ****     cy_ble_gatt_db_attr_handle_t reconnAddrCharHandle;
 182:Generated_Source\PSoC6\pdl\middleware/ble/cy_ble_gap.h **** 
 183:Generated_Source\PSoC6\pdl\middleware/ble/cy_ble_gap.h ****     /** Handle of the GAPS Peripheral Preferred Connection Parameters Characteristic */
 184:Generated_Source\PSoC6\pdl\middleware/ble/cy_ble_gap.h ****     cy_ble_gatt_db_attr_handle_t prefConnParamCharHandle;
 185:Generated_Source\PSoC6\pdl\middleware/ble/cy_ble_gap.h **** 
 186:Generated_Source\PSoC6\pdl\middleware/ble/cy_ble_gap.h ****     /** Handle of the GAPS Central Address Resolution characteristic */
 187:Generated_Source\PSoC6\pdl\middleware/ble/cy_ble_gap.h ****     cy_ble_gatt_db_attr_handle_t centralAddrResolutionCharHandle;
 188:Generated_Source\PSoC6\pdl\middleware/ble/cy_ble_gap.h **** 
 189:Generated_Source\PSoC6\pdl\middleware/ble/cy_ble_gap.h ****     /** Handle of the GAPS Resolvable Private Address Only characteristic */
 190:Generated_Source\PSoC6\pdl\middleware/ble/cy_ble_gap.h ****     cy_ble_gatt_db_attr_handle_t resolvablePrivateAddressOnly;
 191:Generated_Source\PSoC6\pdl\middleware/ble/cy_ble_gap.h **** }cy_stc_ble_gapc_t;
 192:Generated_Source\PSoC6\pdl\middleware/ble/cy_ble_gap.h **** 
 193:Generated_Source\PSoC6\pdl\middleware/ble/cy_ble_gap.h **** /* Stack mode defines */
 194:Generated_Source\PSoC6\pdl\middleware/ble/cy_ble_gap.h **** 
 195:Generated_Source\PSoC6\pdl\middleware/ble/cy_ble_gap.h **** /** Advertisement SIG assigned numbers */
 196:Generated_Source\PSoC6\pdl\middleware/ble/cy_ble_gap.h **** typedef enum
 197:Generated_Source\PSoC6\pdl\middleware/ble/cy_ble_gap.h **** {
 198:Generated_Source\PSoC6\pdl\middleware/ble/cy_ble_gap.h ****     /** Flags */
 199:Generated_Source\PSoC6\pdl\middleware/ble/cy_ble_gap.h ****     CY_BLE_GAP_ADV_FLAGS = 0x01u,
 200:Generated_Source\PSoC6\pdl\middleware/ble/cy_ble_gap.h **** 
 201:Generated_Source\PSoC6\pdl\middleware/ble/cy_ble_gap.h ****     /** Incomplete List of 16-bit Service Class UUIDs */
 202:Generated_Source\PSoC6\pdl\middleware/ble/cy_ble_gap.h ****     CY_BLE_GAP_ADV_INCOMPL_16UUID,
 203:Generated_Source\PSoC6\pdl\middleware/ble/cy_ble_gap.h **** 
 204:Generated_Source\PSoC6\pdl\middleware/ble/cy_ble_gap.h ****     /** Complete List of 16-bit Service Class UUIDs */
 205:Generated_Source\PSoC6\pdl\middleware/ble/cy_ble_gap.h ****     CY_BLE_GAP_ADV_COMPL_16UUID,
 206:Generated_Source\PSoC6\pdl\middleware/ble/cy_ble_gap.h **** 
 207:Generated_Source\PSoC6\pdl\middleware/ble/cy_ble_gap.h ****     /** Incomplete List of 32-bit Service Class UUIDs */
 208:Generated_Source\PSoC6\pdl\middleware/ble/cy_ble_gap.h ****     CY_BLE_GAP_ADV_INCOMPL_32_UUID,
 209:Generated_Source\PSoC6\pdl\middleware/ble/cy_ble_gap.h **** 
 210:Generated_Source\PSoC6\pdl\middleware/ble/cy_ble_gap.h ****     /** Complete List of 32-bit Service Class UUIDs */
 211:Generated_Source\PSoC6\pdl\middleware/ble/cy_ble_gap.h ****     CY_BLE_GAP_ADV_COMPL_32_UUID,
 212:Generated_Source\PSoC6\pdl\middleware/ble/cy_ble_gap.h **** 
 213:Generated_Source\PSoC6\pdl\middleware/ble/cy_ble_gap.h ****     /** Incomplete List of 128-bit Service Class UUIDs */
 214:Generated_Source\PSoC6\pdl\middleware/ble/cy_ble_gap.h ****     CY_BLE_GAP_ADV_INCOMPL_128_UUID,
 215:Generated_Source\PSoC6\pdl\middleware/ble/cy_ble_gap.h **** 
 216:Generated_Source\PSoC6\pdl\middleware/ble/cy_ble_gap.h ****     /** Complete List of 128-bit Service Class UUIDs */
 217:Generated_Source\PSoC6\pdl\middleware/ble/cy_ble_gap.h ****     CY_BLE_GAP_ADV_COMPL_128_UUID,
 218:Generated_Source\PSoC6\pdl\middleware/ble/cy_ble_gap.h **** 
 219:Generated_Source\PSoC6\pdl\middleware/ble/cy_ble_gap.h ****     /** Shortened Local Name */
 220:Generated_Source\PSoC6\pdl\middleware/ble/cy_ble_gap.h ****     CY_BLE_GAP_ADV_SHORT_NAME,
 221:Generated_Source\PSoC6\pdl\middleware/ble/cy_ble_gap.h **** 
 222:Generated_Source\PSoC6\pdl\middleware/ble/cy_ble_gap.h ****     /** Complete Local Name */
 223:Generated_Source\PSoC6\pdl\middleware/ble/cy_ble_gap.h ****     CY_BLE_GAP_ADV_COMPL_NAME,
 224:Generated_Source\PSoC6\pdl\middleware/ble/cy_ble_gap.h **** 
 225:Generated_Source\PSoC6\pdl\middleware/ble/cy_ble_gap.h ****     /** Tx Power Level */
 226:Generated_Source\PSoC6\pdl\middleware/ble/cy_ble_gap.h ****     CY_BLE_GAP_ADV_TX_PWR_LVL,
 227:Generated_Source\PSoC6\pdl\middleware/ble/cy_ble_gap.h **** 
 228:Generated_Source\PSoC6\pdl\middleware/ble/cy_ble_gap.h ****     /** Class of Device */
 229:Generated_Source\PSoC6\pdl\middleware/ble/cy_ble_gap.h ****     CY_BLE_GAP_ADV_CLASS_OF_DEVICE = 0x0Du,
 230:Generated_Source\PSoC6\pdl\middleware/ble/cy_ble_gap.h **** 
 231:Generated_Source\PSoC6\pdl\middleware/ble/cy_ble_gap.h ****     /** Simple Pairing Hash C */
 232:Generated_Source\PSoC6\pdl\middleware/ble/cy_ble_gap.h ****     CY_BLE_GAP_ADV_SMPL_PAIR_HASH_C,
 233:Generated_Source\PSoC6\pdl\middleware/ble/cy_ble_gap.h **** 
 234:Generated_Source\PSoC6\pdl\middleware/ble/cy_ble_gap.h ****     /** Simple Pairing Randomizer R */
ARM GAS  C:\Users\Austina\AppData\Local\Temp\ccmbhoja.s 			page 11


 235:Generated_Source\PSoC6\pdl\middleware/ble/cy_ble_gap.h ****     CY_BLE_GAP_ADV_SMPL_PAIR_RANDOM_R,
 236:Generated_Source\PSoC6\pdl\middleware/ble/cy_ble_gap.h **** 
 237:Generated_Source\PSoC6\pdl\middleware/ble/cy_ble_gap.h ****     /** Device ID*/
 238:Generated_Source\PSoC6\pdl\middleware/ble/cy_ble_gap.h ****     CY_BLE_GAP_ADV_DEVICE_ID,
 239:Generated_Source\PSoC6\pdl\middleware/ble/cy_ble_gap.h **** 
 240:Generated_Source\PSoC6\pdl\middleware/ble/cy_ble_gap.h ****     /** Security Manager TK Value */
 241:Generated_Source\PSoC6\pdl\middleware/ble/cy_ble_gap.h ****     CY_BLE_GAP_ADV_SCRT_MNGR_TK_VAL = 0x10u,
 242:Generated_Source\PSoC6\pdl\middleware/ble/cy_ble_gap.h **** 
 243:Generated_Source\PSoC6\pdl\middleware/ble/cy_ble_gap.h ****     /** Security Manager Out of Band Flags */
 244:Generated_Source\PSoC6\pdl\middleware/ble/cy_ble_gap.h ****     CY_BLE_GAP_ADV_SCRT_MNGR_OOB_FLAGS,
 245:Generated_Source\PSoC6\pdl\middleware/ble/cy_ble_gap.h **** 
 246:Generated_Source\PSoC6\pdl\middleware/ble/cy_ble_gap.h ****     /** Slave Connection Interval Range */
 247:Generated_Source\PSoC6\pdl\middleware/ble/cy_ble_gap.h ****     CY_BLE_GAP_ADV_SLAVE_CONN_INTRV_RANGE,
 248:Generated_Source\PSoC6\pdl\middleware/ble/cy_ble_gap.h **** 
 249:Generated_Source\PSoC6\pdl\middleware/ble/cy_ble_gap.h ****     /** List of 16-bit Service Solicitation UUIDs */
 250:Generated_Source\PSoC6\pdl\middleware/ble/cy_ble_gap.h ****     CY_BLE_GAP_ADV_SOLICIT_16UUID = 0x14u,
 251:Generated_Source\PSoC6\pdl\middleware/ble/cy_ble_gap.h **** 
 252:Generated_Source\PSoC6\pdl\middleware/ble/cy_ble_gap.h ****     /** List of 128-bit Service Solicitation UUIDs */
 253:Generated_Source\PSoC6\pdl\middleware/ble/cy_ble_gap.h ****     CY_BLE_GAP_ADV_SOLICIT_128UUID,
 254:Generated_Source\PSoC6\pdl\middleware/ble/cy_ble_gap.h **** 
 255:Generated_Source\PSoC6\pdl\middleware/ble/cy_ble_gap.h ****     /** Service Data - 16-bit UUID */
 256:Generated_Source\PSoC6\pdl\middleware/ble/cy_ble_gap.h ****     CY_BLE_GAP_ADV_SRVC_DATA_16UUID,
 257:Generated_Source\PSoC6\pdl\middleware/ble/cy_ble_gap.h **** 
 258:Generated_Source\PSoC6\pdl\middleware/ble/cy_ble_gap.h ****     /** Public Target Address */
 259:Generated_Source\PSoC6\pdl\middleware/ble/cy_ble_gap.h ****     CY_BLE_GAP_ADV_PUBLIC_TARGET_ADDR,
 260:Generated_Source\PSoC6\pdl\middleware/ble/cy_ble_gap.h **** 
 261:Generated_Source\PSoC6\pdl\middleware/ble/cy_ble_gap.h ****     /** Random Target Address */
 262:Generated_Source\PSoC6\pdl\middleware/ble/cy_ble_gap.h ****     CY_BLE_GAP_ADV_RANDOM_TARGET_ADDR,
 263:Generated_Source\PSoC6\pdl\middleware/ble/cy_ble_gap.h **** 
 264:Generated_Source\PSoC6\pdl\middleware/ble/cy_ble_gap.h ****     /** Appearance */
 265:Generated_Source\PSoC6\pdl\middleware/ble/cy_ble_gap.h ****     CY_BLE_GAP_ADV_APPEARANCE,
 266:Generated_Source\PSoC6\pdl\middleware/ble/cy_ble_gap.h **** 
 267:Generated_Source\PSoC6\pdl\middleware/ble/cy_ble_gap.h ****     /** Advertising Interval */
 268:Generated_Source\PSoC6\pdl\middleware/ble/cy_ble_gap.h ****     CY_BLE_GAP_ADV_ADVERT_INTERVAL,
 269:Generated_Source\PSoC6\pdl\middleware/ble/cy_ble_gap.h **** 
 270:Generated_Source\PSoC6\pdl\middleware/ble/cy_ble_gap.h ****     /** LE Bluetooth Device Address */
 271:Generated_Source\PSoC6\pdl\middleware/ble/cy_ble_gap.h ****     CY_BLE_GAP_ADV_LE_BT_DEVICE_ADDR,
 272:Generated_Source\PSoC6\pdl\middleware/ble/cy_ble_gap.h **** 
 273:Generated_Source\PSoC6\pdl\middleware/ble/cy_ble_gap.h ****     /** LE Role */
 274:Generated_Source\PSoC6\pdl\middleware/ble/cy_ble_gap.h ****     CY_BLE_GAP_ADV_LE_ROLE,
 275:Generated_Source\PSoC6\pdl\middleware/ble/cy_ble_gap.h **** 
 276:Generated_Source\PSoC6\pdl\middleware/ble/cy_ble_gap.h ****     /** Simple Pairing Hash C-256 */
 277:Generated_Source\PSoC6\pdl\middleware/ble/cy_ble_gap.h ****     CY_BLE_GAP_ADV_SMPL_PAIR_HASH_C256,
 278:Generated_Source\PSoC6\pdl\middleware/ble/cy_ble_gap.h **** 
 279:Generated_Source\PSoC6\pdl\middleware/ble/cy_ble_gap.h ****     /** Simple Pairing Randomizer R-256 */
 280:Generated_Source\PSoC6\pdl\middleware/ble/cy_ble_gap.h ****     CY_BLE_GAP_ADV_SMPL_PAIR_RANDOM_R256,
 281:Generated_Source\PSoC6\pdl\middleware/ble/cy_ble_gap.h **** 
 282:Generated_Source\PSoC6\pdl\middleware/ble/cy_ble_gap.h ****     /** List of 32-bit Service Solicitation UUIDs */
 283:Generated_Source\PSoC6\pdl\middleware/ble/cy_ble_gap.h ****     CY_BLE_GAP_ADV_SOLICIT_32UUID,
 284:Generated_Source\PSoC6\pdl\middleware/ble/cy_ble_gap.h **** 
 285:Generated_Source\PSoC6\pdl\middleware/ble/cy_ble_gap.h ****     /** Service Data - 32-bit UUID */
 286:Generated_Source\PSoC6\pdl\middleware/ble/cy_ble_gap.h ****     CY_BLE_GAP_ADV_SRVC_DATA_32UUID,
 287:Generated_Source\PSoC6\pdl\middleware/ble/cy_ble_gap.h **** 
 288:Generated_Source\PSoC6\pdl\middleware/ble/cy_ble_gap.h ****     /** Service Data - 128-bit UUID */
 289:Generated_Source\PSoC6\pdl\middleware/ble/cy_ble_gap.h ****     CY_BLE_GAP_ADV_SRVC_DATA_128UUID,
 290:Generated_Source\PSoC6\pdl\middleware/ble/cy_ble_gap.h **** 
 291:Generated_Source\PSoC6\pdl\middleware/ble/cy_ble_gap.h ****     /** 3D Information Data */
ARM GAS  C:\Users\Austina\AppData\Local\Temp\ccmbhoja.s 			page 12


 292:Generated_Source\PSoC6\pdl\middleware/ble/cy_ble_gap.h ****     CY_BLE_GAP_ADV_3D_INFO_DATA = 0x3D,
 293:Generated_Source\PSoC6\pdl\middleware/ble/cy_ble_gap.h **** 
 294:Generated_Source\PSoC6\pdl\middleware/ble/cy_ble_gap.h ****     /** Manufacturer Specific Data */
 295:Generated_Source\PSoC6\pdl\middleware/ble/cy_ble_gap.h ****     CY_BLE_GAP_ADV_MANUFACTURER_SPECIFIC_DATA = 0xFF
 296:Generated_Source\PSoC6\pdl\middleware/ble/cy_ble_gap.h **** }cy_en_ble_gap_adv_assign_numbers_t;
 297:Generated_Source\PSoC6\pdl\middleware/ble/cy_ble_gap.h **** 
 298:Generated_Source\PSoC6\pdl\middleware/ble/cy_ble_gap.h **** /** GAPP advertising configuration parameters structure */
 299:Generated_Source\PSoC6\pdl\middleware/ble/cy_ble_gap.h **** typedef struct
 300:Generated_Source\PSoC6\pdl\middleware/ble/cy_ble_gap.h **** {
 301:Generated_Source\PSoC6\pdl\middleware/ble/cy_ble_gap.h ****     /** The minimum interval for fast advertising the data and establishing the LE Connection */
 302:Generated_Source\PSoC6\pdl\middleware/ble/cy_ble_gap.h ****     uint16_t fastAdvIntervalMin;
 303:Generated_Source\PSoC6\pdl\middleware/ble/cy_ble_gap.h **** 
 304:Generated_Source\PSoC6\pdl\middleware/ble/cy_ble_gap.h ****     /** The maximum interval for fast advertising the data and establishing the LE Connection */
 305:Generated_Source\PSoC6\pdl\middleware/ble/cy_ble_gap.h ****     uint16_t fastAdvIntervalMax;
 306:Generated_Source\PSoC6\pdl\middleware/ble/cy_ble_gap.h **** 
 307:Generated_Source\PSoC6\pdl\middleware/ble/cy_ble_gap.h ****     /** The timeout value of  fast advertising with fast advertising interval parameters */
 308:Generated_Source\PSoC6\pdl\middleware/ble/cy_ble_gap.h ****     uint16_t fastAdvTimeOut;
 309:Generated_Source\PSoC6\pdl\middleware/ble/cy_ble_gap.h **** 
 310:Generated_Source\PSoC6\pdl\middleware/ble/cy_ble_gap.h ****     /** Slow advertising enable */
 311:Generated_Source\PSoC6\pdl\middleware/ble/cy_ble_gap.h ****     uint8_t  slowAdvEnable;
 312:Generated_Source\PSoC6\pdl\middleware/ble/cy_ble_gap.h **** 
 313:Generated_Source\PSoC6\pdl\middleware/ble/cy_ble_gap.h ****     /** The minimum interval for slow advertising the data and establishing the LE Connection */
 314:Generated_Source\PSoC6\pdl\middleware/ble/cy_ble_gap.h ****     uint16_t slowAdvIntervalMin;
 315:Generated_Source\PSoC6\pdl\middleware/ble/cy_ble_gap.h **** 
 316:Generated_Source\PSoC6\pdl\middleware/ble/cy_ble_gap.h ****     /** The maximum interval for slow  advertising the data and establishing the LE Connection */
 317:Generated_Source\PSoC6\pdl\middleware/ble/cy_ble_gap.h ****     uint16_t slowAdvIntervalMax;
 318:Generated_Source\PSoC6\pdl\middleware/ble/cy_ble_gap.h **** 
 319:Generated_Source\PSoC6\pdl\middleware/ble/cy_ble_gap.h ****     /** The timeout value of slow advertising with slow advertising interval parameters */
 320:Generated_Source\PSoC6\pdl\middleware/ble/cy_ble_gap.h ****     uint16_t slowAdvTimeOut;
 321:Generated_Source\PSoC6\pdl\middleware/ble/cy_ble_gap.h **** }cy_stc_ble_gapp_adv_params_t;
 322:Generated_Source\PSoC6\pdl\middleware/ble/cy_ble_gap.h **** 
 323:Generated_Source\PSoC6\pdl\middleware/ble/cy_ble_gap.h **** /** GAPC advertising configuration parameters structure */
 324:Generated_Source\PSoC6\pdl\middleware/ble/cy_ble_gap.h **** typedef struct
 325:Generated_Source\PSoC6\pdl\middleware/ble/cy_ble_gap.h **** {
 326:Generated_Source\PSoC6\pdl\middleware/ble/cy_ble_gap.h ****     /** The scan interval when operating in Fast connection */
 327:Generated_Source\PSoC6\pdl\middleware/ble/cy_ble_gap.h ****     uint16_t fastScanInterval;
 328:Generated_Source\PSoC6\pdl\middleware/ble/cy_ble_gap.h **** 
 329:Generated_Source\PSoC6\pdl\middleware/ble/cy_ble_gap.h ****     /** Defines the scan window when operating in Fast connection */
 330:Generated_Source\PSoC6\pdl\middleware/ble/cy_ble_gap.h ****     uint16_t fastScanWindow;
 331:Generated_Source\PSoC6\pdl\middleware/ble/cy_ble_gap.h **** 
 332:Generated_Source\PSoC6\pdl\middleware/ble/cy_ble_gap.h ****     /** The timeout value of scanning with fast scan parameters */
 333:Generated_Source\PSoC6\pdl\middleware/ble/cy_ble_gap.h ****     uint16_t fastScanTimeOut;
 334:Generated_Source\PSoC6\pdl\middleware/ble/cy_ble_gap.h **** 
 335:Generated_Source\PSoC6\pdl\middleware/ble/cy_ble_gap.h ****     /** Slow scan enable/disable */
 336:Generated_Source\PSoC6\pdl\middleware/ble/cy_ble_gap.h ****     uint8_t  slowScanEnabled;
 337:Generated_Source\PSoC6\pdl\middleware/ble/cy_ble_gap.h **** 
 338:Generated_Source\PSoC6\pdl\middleware/ble/cy_ble_gap.h ****     /** The scan interval when operating in Slow connection */
 339:Generated_Source\PSoC6\pdl\middleware/ble/cy_ble_gap.h ****     uint16_t slowScanInterval;
 340:Generated_Source\PSoC6\pdl\middleware/ble/cy_ble_gap.h **** 
 341:Generated_Source\PSoC6\pdl\middleware/ble/cy_ble_gap.h ****     /** Defines the scan window when operating in Slow connection */
 342:Generated_Source\PSoC6\pdl\middleware/ble/cy_ble_gap.h ****     uint16_t slowScanWindow;
 343:Generated_Source\PSoC6\pdl\middleware/ble/cy_ble_gap.h **** 
 344:Generated_Source\PSoC6\pdl\middleware/ble/cy_ble_gap.h ****     /** The timeout value of scanning with Slow scan parameters */
 345:Generated_Source\PSoC6\pdl\middleware/ble/cy_ble_gap.h ****     uint16_t slowScanTimeOut;
 346:Generated_Source\PSoC6\pdl\middleware/ble/cy_ble_gap.h **** 
 347:Generated_Source\PSoC6\pdl\middleware/ble/cy_ble_gap.h ****     /** The minimum permissible connection time value to be used during a connection event */
 348:Generated_Source\PSoC6\pdl\middleware/ble/cy_ble_gap.h ****     uint16_t gapcConnectionIntervalMin;
ARM GAS  C:\Users\Austina\AppData\Local\Temp\ccmbhoja.s 			page 13


 349:Generated_Source\PSoC6\pdl\middleware/ble/cy_ble_gap.h **** 
 350:Generated_Source\PSoC6\pdl\middleware/ble/cy_ble_gap.h ****     /** The maximum permissible connection time value to be used during a connection event */
 351:Generated_Source\PSoC6\pdl\middleware/ble/cy_ble_gap.h ****     uint16_t gapcConnectionIntervalMax;
 352:Generated_Source\PSoC6\pdl\middleware/ble/cy_ble_gap.h **** 
 353:Generated_Source\PSoC6\pdl\middleware/ble/cy_ble_gap.h ****     /** Defines the maximum time between two received Data Packet PDUs before
 354:Generated_Source\PSoC6\pdl\middleware/ble/cy_ble_gap.h ****      *  the connection is considered lost */
 355:Generated_Source\PSoC6\pdl\middleware/ble/cy_ble_gap.h ****     uint16_t gapcConnectionSlaveLatency;
 356:Generated_Source\PSoC6\pdl\middleware/ble/cy_ble_gap.h **** 
 357:Generated_Source\PSoC6\pdl\middleware/ble/cy_ble_gap.h ****     /** Defines the LE link supervision timeout interval */
 358:Generated_Source\PSoC6\pdl\middleware/ble/cy_ble_gap.h ****     uint16_t gapcConnectionTimeOut;
 359:Generated_Source\PSoC6\pdl\middleware/ble/cy_ble_gap.h **** }cy_stc_ble_gapc_scan_params_t;
 360:Generated_Source\PSoC6\pdl\middleware/ble/cy_ble_gap.h **** 
 361:Generated_Source\PSoC6\pdl\middleware/ble/cy_ble_gap.h **** /** Store BLE Application Data parameter into flash */
 362:Generated_Source\PSoC6\pdl\middleware/ble/cy_ble_gap.h **** typedef struct
 363:Generated_Source\PSoC6\pdl\middleware/ble/cy_ble_gap.h **** {
 364:Generated_Source\PSoC6\pdl\middleware/ble/cy_ble_gap.h ****     /** Source buffer */
 365:Generated_Source\PSoC6\pdl\middleware/ble/cy_ble_gap.h ****     const uint8_t *srcBuff;
 366:Generated_Source\PSoC6\pdl\middleware/ble/cy_ble_gap.h **** 
 367:Generated_Source\PSoC6\pdl\middleware/ble/cy_ble_gap.h ****     /** Destination buffer */
 368:Generated_Source\PSoC6\pdl\middleware/ble/cy_ble_gap.h ****     const uint8_t *destAddr;
 369:Generated_Source\PSoC6\pdl\middleware/ble/cy_ble_gap.h **** 
 370:Generated_Source\PSoC6\pdl\middleware/ble/cy_ble_gap.h ****     /** Source buffer length */
 371:Generated_Source\PSoC6\pdl\middleware/ble/cy_ble_gap.h ****     uint32_t      buffLen;
 372:Generated_Source\PSoC6\pdl\middleware/ble/cy_ble_gap.h **** 
 373:Generated_Source\PSoC6\pdl\middleware/ble/cy_ble_gap.h ****     /** Write mode: blocking (default) / non-blocking */
 374:Generated_Source\PSoC6\pdl\middleware/ble/cy_ble_gap.h ****     uint32_t      writeMode;
 375:Generated_Source\PSoC6\pdl\middleware/ble/cy_ble_gap.h **** 
 376:Generated_Source\PSoC6\pdl\middleware/ble/cy_ble_gap.h **** } cy_stc_ble_app_flash_param_t;
 377:Generated_Source\PSoC6\pdl\middleware/ble/cy_ble_gap.h **** 
 378:Generated_Source\PSoC6\pdl\middleware/ble/cy_ble_gap.h **** /** @} group_ble_common_api_gap_definitions */
 379:Generated_Source\PSoC6\pdl\middleware/ble/cy_ble_gap.h **** 
 380:Generated_Source\PSoC6\pdl\middleware/ble/cy_ble_gap.h **** /***************************************
 381:Generated_Source\PSoC6\pdl\middleware/ble/cy_ble_gap.h **** * API Constants
 382:Generated_Source\PSoC6\pdl\middleware/ble/cy_ble_gap.h **** ***************************************/
 383:Generated_Source\PSoC6\pdl\middleware/ble/cy_ble_gap.h **** #define CY_BLE_AD_TYPE_MORE16UUID                  (0x02u)
 384:Generated_Source\PSoC6\pdl\middleware/ble/cy_ble_gap.h **** #define CY_BLE_AD_TYPE_CMPL16UUID                  (0x03u)
 385:Generated_Source\PSoC6\pdl\middleware/ble/cy_ble_gap.h **** #define CY_BLE_AD_TYPE_MORE32UUID                  (0x04u)
 386:Generated_Source\PSoC6\pdl\middleware/ble/cy_ble_gap.h **** #define CY_BLE_AD_TYPE_CMPL32UUID                  (0x05u)
 387:Generated_Source\PSoC6\pdl\middleware/ble/cy_ble_gap.h **** #define CY_BLE_AD_TYPE_MORE128UUID                 (0x06u)
 388:Generated_Source\PSoC6\pdl\middleware/ble/cy_ble_gap.h **** #define CY_BLE_AD_TYPE_CMPL128UUID                 (0x07u)
 389:Generated_Source\PSoC6\pdl\middleware/ble/cy_ble_gap.h **** 
 390:Generated_Source\PSoC6\pdl\middleware/ble/cy_ble_gap.h **** #define CY_BLE_AD_TYPE_SERVICE_DATA                (0x16u)
 391:Generated_Source\PSoC6\pdl\middleware/ble/cy_ble_gap.h **** #define CY_BLE_AD_SERVICE_DATA_OVERHEAD            (0x03u)
 392:Generated_Source\PSoC6\pdl\middleware/ble/cy_ble_gap.h **** 
 393:Generated_Source\PSoC6\pdl\middleware/ble/cy_ble_gap.h **** #define CY_BLE_DISCOVERY_IDLE                      (0x00u)
 394:Generated_Source\PSoC6\pdl\middleware/ble/cy_ble_gap.h **** #define CY_BLE_DISCOVERY_SERVICE                   (0x01u)
 395:Generated_Source\PSoC6\pdl\middleware/ble/cy_ble_gap.h **** #define CY_BLE_DISCOVERY_CHAR                      (0x02u)
 396:Generated_Source\PSoC6\pdl\middleware/ble/cy_ble_gap.h **** #define CY_BLE_DISCOVERY_DESCR                     (0x03u)
 397:Generated_Source\PSoC6\pdl\middleware/ble/cy_ble_gap.h **** #define CY_BLE_DISCOVERY_DONE                      (0x04u)
 398:Generated_Source\PSoC6\pdl\middleware/ble/cy_ble_gap.h **** 
 399:Generated_Source\PSoC6\pdl\middleware/ble/cy_ble_gap.h **** /* Cy_BLE_NextCharDscrDiscovery parameters */
 400:Generated_Source\PSoC6\pdl\middleware/ble/cy_ble_gap.h **** #define CY_BLE_DISCOVERY_INIT                      (0x00u)
 401:Generated_Source\PSoC6\pdl\middleware/ble/cy_ble_gap.h **** #define CY_BLE_DISCOVERY_CONTINUE                  (0x01u)
 402:Generated_Source\PSoC6\pdl\middleware/ble/cy_ble_gap.h **** 
 403:Generated_Source\PSoC6\pdl\middleware/ble/cy_ble_gap.h **** #define CY_BLE_SFLASH_DIE_X_MASK                   (0x3Fu)
 404:Generated_Source\PSoC6\pdl\middleware/ble/cy_ble_gap.h **** #define CY_BLE_SFLASH_DIE_X_BITS                   (6u)
 405:Generated_Source\PSoC6\pdl\middleware/ble/cy_ble_gap.h **** #define CY_BLE_SFLASH_DIE_Y_MASK                   (0x3Fu)
ARM GAS  C:\Users\Austina\AppData\Local\Temp\ccmbhoja.s 			page 14


 406:Generated_Source\PSoC6\pdl\middleware/ble/cy_ble_gap.h **** #define CY_BLE_SFLASH_DIE_Y_BITS                   (6u)
 407:Generated_Source\PSoC6\pdl\middleware/ble/cy_ble_gap.h **** #define CY_BLE_SFLASH_DIE_XY_BITS                  (CY_BLE_SFLASH_DIE_X_BITS + CY_BLE_SFLASH_DIE_Y_
 408:Generated_Source\PSoC6\pdl\middleware/ble/cy_ble_gap.h **** #define CY_BLE_SFLASH_DIE_WAFER_MASK               (0x1Fu)
 409:Generated_Source\PSoC6\pdl\middleware/ble/cy_ble_gap.h **** #define CY_BLE_SFLASH_DIE_WAFER_BITS               (5u)
 410:Generated_Source\PSoC6\pdl\middleware/ble/cy_ble_gap.h **** #define CY_BLE_SFLASH_DIE_XYWAFER_BITS             (CY_BLE_SFLASH_DIE_XY_BITS + CY_BLE_SFLASH_DIE_W
 411:Generated_Source\PSoC6\pdl\middleware/ble/cy_ble_gap.h **** #define CY_BLE_SFLASH_DIE_LOT_MASK                 (0x7Fu)
 412:Generated_Source\PSoC6\pdl\middleware/ble/cy_ble_gap.h **** #define CY_BLE_SFLASH_DIE_LOT_BITS                 (7u)
 413:Generated_Source\PSoC6\pdl\middleware/ble/cy_ble_gap.h **** 
 414:Generated_Source\PSoC6\pdl\middleware/ble/cy_ble_gap.h **** /* Device address stored by user in ROW4 of the SFLASH */
 415:Generated_Source\PSoC6\pdl\middleware/ble/cy_ble_gap.h **** #define CY_BLE_SFLASH_DEVICE_ADDRESS_PTR           ((cy_stc_ble_gap_bd_addr_t*)(SFLASH->BLE_DEVICE_
 416:Generated_Source\PSoC6\pdl\middleware/ble/cy_ble_gap.h **** #define CY_BLE_AD_STRUCTURE_MAX_LENGTH             (31u)
 417:Generated_Source\PSoC6\pdl\middleware/ble/cy_ble_gap.h **** 
 418:Generated_Source\PSoC6\pdl\middleware/ble/cy_ble_gap.h **** /* AD types for complete, shortened local name and device address */
 419:Generated_Source\PSoC6\pdl\middleware/ble/cy_ble_gap.h **** #define CY_BLE_SHORT_LOCAL_NAME                    (0x08u)  /**< Shortened Local Name */
 420:Generated_Source\PSoC6\pdl\middleware/ble/cy_ble_gap.h **** #define CY_BLE_COMPLETE_LOCAL_NAME                 (0x09u)  /**< Complete Local Name */
 421:Generated_Source\PSoC6\pdl\middleware/ble/cy_ble_gap.h **** #define CY_BLE_ADV_DEVICE_ADDR                     (0x1Bu)  /**< LE Bluetooth Device Address */
 422:Generated_Source\PSoC6\pdl\middleware/ble/cy_ble_gap.h **** 
 423:Generated_Source\PSoC6\pdl\middleware/ble/cy_ble_gap.h **** #define CY_BLE_ADVERTISING_FAST                    (0x00u)
 424:Generated_Source\PSoC6\pdl\middleware/ble/cy_ble_gap.h **** #define CY_BLE_ADVERTISING_SLOW                    (0x01u)
 425:Generated_Source\PSoC6\pdl\middleware/ble/cy_ble_gap.h **** #define CY_BLE_ADVERTISING_CUSTOM                  (0x02u)
 426:Generated_Source\PSoC6\pdl\middleware/ble/cy_ble_gap.h **** 
 427:Generated_Source\PSoC6\pdl\middleware/ble/cy_ble_gap.h **** #define CY_BLE_SCANNING_FAST                       (0x00u)
 428:Generated_Source\PSoC6\pdl\middleware/ble/cy_ble_gap.h **** #define CY_BLE_SCANNING_SLOW                       (0x01u)
 429:Generated_Source\PSoC6\pdl\middleware/ble/cy_ble_gap.h **** #define CY_BLE_SCANNING_CUSTOM                     (0x02u)
 430:Generated_Source\PSoC6\pdl\middleware/ble/cy_ble_gap.h **** 
 431:Generated_Source\PSoC6\pdl\middleware/ble/cy_ble_gap.h **** #define CY_BLE_PENDING_STACK_FLASH_WRITE_BIT       (0x01u)
 432:Generated_Source\PSoC6\pdl\middleware/ble/cy_ble_gap.h **** #define CY_BLE_PENDING_CCCD_FLASH_WRITE_BIT        (0x02u)
 433:Generated_Source\PSoC6\pdl\middleware/ble/cy_ble_gap.h **** #define CY_BLE_PENDING_CCCD_FLASH_CLEAR_BIT        (0x04u)
 434:Generated_Source\PSoC6\pdl\middleware/ble/cy_ble_gap.h **** #define CY_BLE_PENDING_CCCD_FLASH_CLEAR_ALL_BIT    (0x08u)
 435:Generated_Source\PSoC6\pdl\middleware/ble/cy_ble_gap.h **** #define CY_BLE_PENDING_CCCD_FLASH_CLEAR_MASK \
 436:Generated_Source\PSoC6\pdl\middleware/ble/cy_ble_gap.h ****     (CY_BLE_PENDING_CCCD_FLASH_CLEAR_BIT | CY_BLE_PENDING_CCCD_FLASH_CLEAR_ALL_BIT)
 437:Generated_Source\PSoC6\pdl\middleware/ble/cy_ble_gap.h **** 
 438:Generated_Source\PSoC6\pdl\middleware/ble/cy_ble_gap.h **** /**
 439:Generated_Source\PSoC6\pdl\middleware/ble/cy_ble_gap.h ****  * \addtogroup group_ble_common_api_macros
 440:Generated_Source\PSoC6\pdl\middleware/ble/cy_ble_gap.h ****  * @{
 441:Generated_Source\PSoC6\pdl\middleware/ble/cy_ble_gap.h ****  */
 442:Generated_Source\PSoC6\pdl\middleware/ble/cy_ble_gap.h **** 
 443:Generated_Source\PSoC6\pdl\middleware/ble/cy_ble_gap.h **** /* GAP Advertisement Flags */
 444:Generated_Source\PSoC6\pdl\middleware/ble/cy_ble_gap.h **** #define CY_BLE_GAP_ADV_FLAG_LE_LIMITED_DISC_MODE        (0x01u)     /**< LE Limited Discoverable Mo
 445:Generated_Source\PSoC6\pdl\middleware/ble/cy_ble_gap.h **** #define CY_BLE_GAP_ADV_FLAG_LE_GENERAL_DISC_MODE        (0x02u)     /**< LE General Discoverable Mo
 446:Generated_Source\PSoC6\pdl\middleware/ble/cy_ble_gap.h **** #define CY_BLE_GAP_ADV_FLAG_BR_EDR_NOT_SUPPORTED        (0x04u)     /**< BR/EDR not supported. */
 447:Generated_Source\PSoC6\pdl\middleware/ble/cy_ble_gap.h **** #define CY_BLE_GAP_ADV_FLAG_LE_BR_EDR_CONTROLLER        (0x08u)     /**< Simultaneous LE and BR/EDR
 448:Generated_Source\PSoC6\pdl\middleware/ble/cy_ble_gap.h **** #define CY_BLE_GAP_ADV_FLAG_LE_BR_EDR_HOST              (0x10u)     /**< Simultaneous LE and BR/EDR
 449:Generated_Source\PSoC6\pdl\middleware/ble/cy_ble_gap.h **** #define CY_BLE_GAP_ADV_FLAGS_PACKET_LENGTH              (0x02u)     /**< Length of flags in an adve
 450:Generated_Source\PSoC6\pdl\middleware/ble/cy_ble_gap.h **** 
 451:Generated_Source\PSoC6\pdl\middleware/ble/cy_ble_gap.h **** /* GAP Advertising interval min and max */
 452:Generated_Source\PSoC6\pdl\middleware/ble/cy_ble_gap.h **** #define CY_BLE_GAP_ADV_ADVERT_INTERVAL_MIN              (0x0020u)   /**< Minimum Advertising interv
 453:Generated_Source\PSoC6\pdl\middleware/ble/cy_ble_gap.h ****                                                                      *   i.e. 20 ms. */
 454:Generated_Source\PSoC6\pdl\middleware/ble/cy_ble_gap.h **** #define CY_BLE_GAP_ADV_ADVERT_INTERVAL_NONCON_MIN       (0x00A0u)   /**< Minimum Advertising interv
 455:Generated_Source\PSoC6\pdl\middleware/ble/cy_ble_gap.h ****                                                                      *   for non connectable mode, 
 456:Generated_Source\PSoC6\pdl\middleware/ble/cy_ble_gap.h **** #define CY_BLE_GAP_ADV_ADVERT_INTERVAL_MAX              (0x4000u)   /**< Maximum Advertising interv
 457:Generated_Source\PSoC6\pdl\middleware/ble/cy_ble_gap.h ****                                                                      *   i.e. 10.24 s. */
 458:Generated_Source\PSoC6\pdl\middleware/ble/cy_ble_gap.h **** #define CY_BLE_GAP_ADV_ADVERT_INTERVAL_PACKET_LENGTH    (0x03u)     /**< Length of the Advertising 
 459:Generated_Source\PSoC6\pdl\middleware/ble/cy_ble_gap.h ****                                                                      *   an advertisement packet */
 460:Generated_Source\PSoC6\pdl\middleware/ble/cy_ble_gap.h **** #define CY_BLE_GAPC_CONNECTING_TIMEOUT                  (30u)       /**< Seconds */
 461:Generated_Source\PSoC6\pdl\middleware/ble/cy_ble_gap.h **** #define CY_BLE_INVALID_CONN_HANDLE_VALUE                (0xFFu)     /**< Invalid Connection Handle 
 462:Generated_Source\PSoC6\pdl\middleware/ble/cy_ble_gap.h **** 
ARM GAS  C:\Users\Austina\AppData\Local\Temp\ccmbhoja.s 			page 15


 463:Generated_Source\PSoC6\pdl\middleware/ble/cy_ble_gap.h **** /* Write mode for Cy_BLE_StoreAppData */
 464:Generated_Source\PSoC6\pdl\middleware/ble/cy_ble_gap.h **** #define CY_BLE_STORE_DATA_MODE_BLOCKING                 (0x0u)      /**< Blocking write */
 465:Generated_Source\PSoC6\pdl\middleware/ble/cy_ble_gap.h **** #define CY_BLE_STORE_DATA_MODE_NON_BLOCKING             (0x1u)      /**< Non-blocking write */
 466:Generated_Source\PSoC6\pdl\middleware/ble/cy_ble_gap.h **** 
 467:Generated_Source\PSoC6\pdl\middleware/ble/cy_ble_gap.h **** /** @} group_ble_common_api_macros */
 468:Generated_Source\PSoC6\pdl\middleware/ble/cy_ble_gap.h **** 
 469:Generated_Source\PSoC6\pdl\middleware/ble/cy_ble_gap.h **** /***************************************
 470:Generated_Source\PSoC6\pdl\middleware/ble/cy_ble_gap.h **** * Private Function Prototypes
 471:Generated_Source\PSoC6\pdl\middleware/ble/cy_ble_gap.h **** ***************************************/
 472:Generated_Source\PSoC6\pdl\middleware/ble/cy_ble_gap.h **** void Cy_BLE_ServiceInit(void);
 473:Generated_Source\PSoC6\pdl\middleware/ble/cy_ble_gap.h **** uint32_t Cy_BLE_GetDiscoveryIdx(cy_stc_ble_conn_handle_t connHandle);
 474:Generated_Source\PSoC6\pdl\middleware/ble/cy_ble_gap.h **** 
 475:Generated_Source\PSoC6\pdl\middleware/ble/cy_ble_gap.h **** /***************************************
 476:Generated_Source\PSoC6\pdl\middleware/ble/cy_ble_gap.h **** * Function Prototypes
 477:Generated_Source\PSoC6\pdl\middleware/ble/cy_ble_gap.h **** ***************************************/
 478:Generated_Source\PSoC6\pdl\middleware/ble/cy_ble_gap.h **** /**
 479:Generated_Source\PSoC6\pdl\middleware/ble/cy_ble_gap.h ****  * \addtogroup group_ble_common_api_functions
 480:Generated_Source\PSoC6\pdl\middleware/ble/cy_ble_gap.h ****  * @{
 481:Generated_Source\PSoC6\pdl\middleware/ble/cy_ble_gap.h ****  */
 482:Generated_Source\PSoC6\pdl\middleware/ble/cy_ble_gap.h **** 
 483:Generated_Source\PSoC6\pdl\middleware/ble/cy_ble_gap.h **** cy_en_ble_api_result_t Cy_BLE_StoreAppData(const cy_stc_ble_app_flash_param_t *param);
 484:Generated_Source\PSoC6\pdl\middleware/ble/cy_ble_gap.h **** 
 485:Generated_Source\PSoC6\pdl\middleware/ble/cy_ble_gap.h **** #if ((CY_BLE_GAP_ROLE_PERIPHERAL || CY_BLE_GAP_ROLE_CENTRAL) && (CY_BLE_BONDING_REQUIREMENT == CY_B
 486:Generated_Source\PSoC6\pdl\middleware/ble/cy_ble_gap.h **** cy_en_ble_api_result_t Cy_BLE_StoreBondingData(void);
 487:Generated_Source\PSoC6\pdl\middleware/ble/cy_ble_gap.h **** cy_en_ble_api_result_t Cy_BLE_GAP_RemoveBondedDevice(cy_stc_ble_gap_bd_addr_t* bdAddr);
 488:Generated_Source\PSoC6\pdl\middleware/ble/cy_ble_gap.h **** #endif /* (CY_BLE_GAP_ROLE_PERIPHERAL || CY_BLE_GAP_ROLE_CENTRAL) && (CY_BLE_BONDING_REQUIREMENT ==
 489:Generated_Source\PSoC6\pdl\middleware/ble/cy_ble_gap.h **** 
 490:Generated_Source\PSoC6\pdl\middleware/ble/cy_ble_gap.h **** #if (CY_BLE_GAP_ROLE_PERIPHERAL || CY_BLE_GAP_ROLE_CENTRAL)
 491:Generated_Source\PSoC6\pdl\middleware/ble/cy_ble_gap.h **** bool Cy_BLE_IsPeerConnected(uint8_t *bdAddr);
 492:Generated_Source\PSoC6\pdl\middleware/ble/cy_ble_gap.h **** bool Cy_BLE_IsDevicePaired(cy_stc_ble_conn_handle_t *connHandle);
 493:Generated_Source\PSoC6\pdl\middleware/ble/cy_ble_gap.h **** uint8_t Cy_BLE_GetDeviceRole(cy_stc_ble_conn_handle_t *connHandle);
 494:Generated_Source\PSoC6\pdl\middleware/ble/cy_ble_gap.h **** 
 495:Generated_Source\PSoC6\pdl\middleware/ble/cy_ble_gap.h **** cy_en_ble_api_result_t Cy_BLE_GetRssiPeer(uint8_t  bdHandle);
 496:Generated_Source\PSoC6\pdl\middleware/ble/cy_ble_gap.h **** #endif /* (CY_BLE_GAP_ROLE_PERIPHERAL || CY_BLE_GAP_ROLE_CENTRAL) */
 497:Generated_Source\PSoC6\pdl\middleware/ble/cy_ble_gap.h **** /** @} group_ble_common_api_functions */
 498:Generated_Source\PSoC6\pdl\middleware/ble/cy_ble_gap.h **** 
 499:Generated_Source\PSoC6\pdl\middleware/ble/cy_ble_gap.h **** /**
 500:Generated_Source\PSoC6\pdl\middleware/ble/cy_ble_gap.h ****  * \addtogroup group_ble_common_api_gap_peripheral_functions
 501:Generated_Source\PSoC6\pdl\middleware/ble/cy_ble_gap.h ****  * @{
 502:Generated_Source\PSoC6\pdl\middleware/ble/cy_ble_gap.h ****  */
 503:Generated_Source\PSoC6\pdl\middleware/ble/cy_ble_gap.h **** 
 504:Generated_Source\PSoC6\pdl\middleware/ble/cy_ble_gap.h **** #if (CY_BLE_GAP_ROLE_PERIPHERAL || CY_BLE_GAP_ROLE_BROADCASTER)
 505:Generated_Source\PSoC6\pdl\middleware/ble/cy_ble_gap.h **** cy_en_ble_api_result_t Cy_BLE_GAPP_StartAdvertisement(uint8_t advertisingIntervalType, uint8_t adve
 506:Generated_Source\PSoC6\pdl\middleware/ble/cy_ble_gap.h **** cy_en_ble_api_result_t Cy_BLE_GAPP_StopAdvertisement(void);
 507:Generated_Source\PSoC6\pdl\middleware/ble/cy_ble_gap.h **** 
 508:Generated_Source\PSoC6\pdl\middleware/ble/cy_ble_gap.h **** /** \cond IGNORE */
 509:Generated_Source\PSoC6\pdl\middleware/ble/cy_ble_gap.h **** void Cy_BLE_ChangeAdDeviceAddress(const cy_stc_ble_gap_bd_addr_t* bdAddr, uint8_t dest);
 510:Generated_Source\PSoC6\pdl\middleware/ble/cy_ble_gap.h **** /** \endcond */
 511:Generated_Source\PSoC6\pdl\middleware/ble/cy_ble_gap.h **** 
 512:Generated_Source\PSoC6\pdl\middleware/ble/cy_ble_gap.h **** #endif /* CY_BLE_GAP_ROLE_PERIPHERAL */
 513:Generated_Source\PSoC6\pdl\middleware/ble/cy_ble_gap.h **** 
 514:Generated_Source\PSoC6\pdl\middleware/ble/cy_ble_gap.h **** /** @} group_ble_common_api_gap_peripheral_functions */
 515:Generated_Source\PSoC6\pdl\middleware/ble/cy_ble_gap.h **** 
 516:Generated_Source\PSoC6\pdl\middleware/ble/cy_ble_gap.h **** /**
 517:Generated_Source\PSoC6\pdl\middleware/ble/cy_ble_gap.h ****  * \addtogroup group_ble_common_api_gap_central_functions
 518:Generated_Source\PSoC6\pdl\middleware/ble/cy_ble_gap.h ****  * @{
 519:Generated_Source\PSoC6\pdl\middleware/ble/cy_ble_gap.h ****  */
ARM GAS  C:\Users\Austina\AppData\Local\Temp\ccmbhoja.s 			page 16


 520:Generated_Source\PSoC6\pdl\middleware/ble/cy_ble_gap.h **** 
 521:Generated_Source\PSoC6\pdl\middleware/ble/cy_ble_gap.h **** #if (CY_BLE_GAP_ROLE_CENTRAL || CY_BLE_GAP_ROLE_OBSERVER)
 522:Generated_Source\PSoC6\pdl\middleware/ble/cy_ble_gap.h **** cy_en_ble_api_result_t Cy_BLE_GAPC_StartScan(uint8_t scanningIntervalType, uint8_t scanParamIndex);
 523:Generated_Source\PSoC6\pdl\middleware/ble/cy_ble_gap.h **** cy_en_ble_api_result_t Cy_BLE_GAPC_StopScan(void);
 524:Generated_Source\PSoC6\pdl\middleware/ble/cy_ble_gap.h **** #endif /* CY_BLE_GAP_ROLE_CENTRAL || CY_BLE_GAP_ROLE_OBSERVER */
 525:Generated_Source\PSoC6\pdl\middleware/ble/cy_ble_gap.h **** 
 526:Generated_Source\PSoC6\pdl\middleware/ble/cy_ble_gap.h **** #if (CY_BLE_GAP_ROLE_CENTRAL)
 527:Generated_Source\PSoC6\pdl\middleware/ble/cy_ble_gap.h **** cy_en_ble_api_result_t Cy_BLE_GAPC_ConnectDevice(const cy_stc_ble_gap_bd_addr_t * address, uint8_t 
 528:Generated_Source\PSoC6\pdl\middleware/ble/cy_ble_gap.h **** cy_en_ble_api_result_t Cy_BLE_GAPC_CancelDeviceConnection(void);
 529:Generated_Source\PSoC6\pdl\middleware/ble/cy_ble_gap.h **** #endif /* CY_BLE_GAP_ROLE_CENTRAL */
 530:Generated_Source\PSoC6\pdl\middleware/ble/cy_ble_gap.h **** 
 531:Generated_Source\PSoC6\pdl\middleware/ble/cy_ble_gap.h **** /** @} group_ble_common_api_gap_central_functions */
 532:Generated_Source\PSoC6\pdl\middleware/ble/cy_ble_gap.h **** 
 533:Generated_Source\PSoC6\pdl\middleware/ble/cy_ble_gap.h **** /***************************************
 534:Generated_Source\PSoC6\pdl\middleware/ble/cy_ble_gap.h **** * External data references
 535:Generated_Source\PSoC6\pdl\middleware/ble/cy_ble_gap.h **** ***************************************/
 536:Generated_Source\PSoC6\pdl\middleware/ble/cy_ble_gap.h **** extern volatile uint8_t cy_ble_eventHandlerFlag;
 537:Generated_Source\PSoC6\pdl\middleware/ble/cy_ble_gap.h **** extern cy_stc_ble_gap_bd_addr_t *cy_ble_sflashDeviceAddress;
 538:Generated_Source\PSoC6\pdl\middleware/ble/cy_ble_gap.h **** extern cy_stc_ble_gap_bd_addr_t cy_ble_deviceAddress;
 539:Generated_Source\PSoC6\pdl\middleware/ble/cy_ble_gap.h **** extern cy_en_ble_state_t cy_ble_state;
 540:Generated_Source\PSoC6\pdl\middleware/ble/cy_ble_gap.h **** 
 541:Generated_Source\PSoC6\pdl\middleware/ble/cy_ble_gap.h **** #if ((CY_BLE_GAP_ROLE_PERIPHERAL || CY_BLE_GAP_ROLE_CENTRAL))
 542:Generated_Source\PSoC6\pdl\middleware/ble/cy_ble_gap.h **** extern cy_stc_ble_gap_auth_info_t cy_ble_authInfo[CY_BLE_AUTH_INFO_COUNT];
 543:Generated_Source\PSoC6\pdl\middleware/ble/cy_ble_gap.h **** #endif /* ((CY_BLE_GAP_ROLE_PERIPHERAL || CY_BLE_GAP_ROLE_CENTRAL)) */
 544:Generated_Source\PSoC6\pdl\middleware/ble/cy_ble_gap.h **** 
 545:Generated_Source\PSoC6\pdl\middleware/ble/cy_ble_gap.h **** #if (CY_BLE_GAP_ROLE_PERIPHERAL || CY_BLE_GAP_ROLE_BROADCASTER)
 546:Generated_Source\PSoC6\pdl\middleware/ble/cy_ble_gap.h **** extern cy_en_ble_adv_state_t cy_ble_advState;
 547:Generated_Source\PSoC6\pdl\middleware/ble/cy_ble_gap.h **** extern uint8_t cy_ble_advIndex;
 548:Generated_Source\PSoC6\pdl\middleware/ble/cy_ble_gap.h **** #endif  /* (CY_BLE_GAP_ROLE_PERIPHERAL || CY_BLE_GAP_ROLE_BROADCASTER) */
 549:Generated_Source\PSoC6\pdl\middleware/ble/cy_ble_gap.h **** 
 550:Generated_Source\PSoC6\pdl\middleware/ble/cy_ble_gap.h **** #if (CY_BLE_GAP_ROLE_CENTRAL || CY_BLE_GAP_ROLE_OBSERVER)
 551:Generated_Source\PSoC6\pdl\middleware/ble/cy_ble_gap.h **** extern cy_en_ble_scan_state_t cy_ble_scanState;
 552:Generated_Source\PSoC6\pdl\middleware/ble/cy_ble_gap.h **** extern uint8_t cy_ble_scanIndex;
 553:Generated_Source\PSoC6\pdl\middleware/ble/cy_ble_gap.h **** #endif /* (CY_BLE_GAP_ROLE_CENTRAL || CY_BLE_GAP_ROLE_OBSERVER) */
 554:Generated_Source\PSoC6\pdl\middleware/ble/cy_ble_gap.h **** 
 555:Generated_Source\PSoC6\pdl\middleware/ble/cy_ble_gap.h **** #if ((CY_BLE_GAP_ROLE_PERIPHERAL || CY_BLE_GAP_ROLE_CENTRAL))
 556:Generated_Source\PSoC6\pdl\middleware/ble/cy_ble_gap.h **** extern cy_stc_ble_conn_handle_t cy_ble_connHandle[CY_BLE_CONN_COUNT];
 557:Generated_Source\PSoC6\pdl\middleware/ble/cy_ble_gap.h **** extern cy_en_ble_conn_state_t cy_ble_connState[CY_BLE_CONN_COUNT];
 558:Generated_Source\PSoC6\pdl\middleware/ble/cy_ble_gap.h **** 
 559:Generated_Source\PSoC6\pdl\middleware/ble/cy_ble_gap.h **** extern volatile uint8_t cy_ble_devConnRole[CY_BLE_CONN_COUNT];
 560:Generated_Source\PSoC6\pdl\middleware/ble/cy_ble_gap.h **** extern volatile bool cy_ble_pairStatus[CY_BLE_CONN_COUNT];
 561:Generated_Source\PSoC6\pdl\middleware/ble/cy_ble_gap.h **** 
 562:Generated_Source\PSoC6\pdl\middleware/ble/cy_ble_gap.h **** #endif /* ((CY_BLE_GAP_ROLE_PERIPHERAL || CY_BLE_GAP_ROLE_CENTRAL)) */
 563:Generated_Source\PSoC6\pdl\middleware/ble/cy_ble_gap.h **** 
 564:Generated_Source\PSoC6\pdl\middleware/ble/cy_ble_gap.h **** #if (CY_BLE_GAP_ROLE_CENTRAL || CY_BLE_GAP_ROLE_OBSERVER)
 565:Generated_Source\PSoC6\pdl\middleware/ble/cy_ble_gap.h **** extern cy_stc_ble_gapc_disc_info_t cy_ble_discoveryInfo[CY_BLE_GAPC_CONF_COUNT];
 566:Generated_Source\PSoC6\pdl\middleware/ble/cy_ble_gap.h **** #endif /* CY_BLE_GAP_ROLE_CENTRAL || CY_BLE_GAP_ROLE_OBSERVER */
 567:Generated_Source\PSoC6\pdl\middleware/ble/cy_ble_gap.h **** 
 568:Generated_Source\PSoC6\pdl\middleware/ble/cy_ble_gap.h **** #if (CY_BLE_GAP_ROLE_CENTRAL)
 569:Generated_Source\PSoC6\pdl\middleware/ble/cy_ble_gap.h **** extern cy_stc_ble_gapc_conn_info_t cy_ble_connectionParameters;
 570:Generated_Source\PSoC6\pdl\middleware/ble/cy_ble_gap.h **** extern cy_stc_ble_timer_info_t cy_ble_connectingTimeout;
 571:Generated_Source\PSoC6\pdl\middleware/ble/cy_ble_gap.h **** #endif /* CY_BLE_GAP_ROLE_CENTRAL */
 572:Generated_Source\PSoC6\pdl\middleware/ble/cy_ble_gap.h **** 
 573:Generated_Source\PSoC6\pdl\middleware/ble/cy_ble_gap.h **** #if (CY_BLE_GAP_ROLE_PERIPHERAL || CY_BLE_GAP_ROLE_BROADCASTER)
 574:Generated_Source\PSoC6\pdl\middleware/ble/cy_ble_gap.h **** extern cy_stc_ble_gapp_disc_mode_info_t cy_ble_discoveryModeInfo[CY_BLE_GAPP_CONF_COUNT];
 575:Generated_Source\PSoC6\pdl\middleware/ble/cy_ble_gap.h **** extern cy_stc_ble_gapp_disc_param_t cy_ble_discoveryParam[CY_BLE_GAPP_CONF_COUNT];
 576:Generated_Source\PSoC6\pdl\middleware/ble/cy_ble_gap.h **** extern cy_stc_ble_gapp_disc_data_t cy_ble_discoveryData[CY_BLE_GAPP_CONF_COUNT];
ARM GAS  C:\Users\Austina\AppData\Local\Temp\ccmbhoja.s 			page 17


 577:Generated_Source\PSoC6\pdl\middleware/ble/cy_ble_gap.h **** extern cy_stc_ble_gapp_scan_rsp_data_t cy_ble_scanRspData[CY_BLE_GAPP_CONF_COUNT];
 578:Generated_Source\PSoC6\pdl\middleware/ble/cy_ble_gap.h **** #endif /* CY_BLE_GAP_ROLE_PERIPHERAL || CY_BLE_GAP_ROLE_BROADCASTER */
 579:Generated_Source\PSoC6\pdl\middleware/ble/cy_ble_gap.h **** 
 580:Generated_Source\PSoC6\pdl\middleware/ble/cy_ble_gap.h **** #if ((CY_BLE_GAP_ROLE_PERIPHERAL || CY_BLE_GAP_ROLE_CENTRAL) && (CY_BLE_BONDING_REQUIREMENT == CY_B
 581:Generated_Source\PSoC6\pdl\middleware/ble/cy_ble_gap.h **** 
 582:Generated_Source\PSoC6\pdl\middleware/ble/cy_ble_gap.h **** /**
 583:Generated_Source\PSoC6\pdl\middleware/ble/cy_ble_gap.h ****  * \addtogroup group_ble_common_api_global_variables
 584:Generated_Source\PSoC6\pdl\middleware/ble/cy_ble_gap.h ****  * @{
 585:Generated_Source\PSoC6\pdl\middleware/ble/cy_ble_gap.h ****  */
 586:Generated_Source\PSoC6\pdl\middleware/ble/cy_ble_gap.h **** /** This is a two-bit variable that contains status of pending write to flash operation.
 587:Generated_Source\PSoC6\pdl\middleware/ble/cy_ble_gap.h ****  * This variable is initialized to zero in Cy_BLE_Init().
 588:Generated_Source\PSoC6\pdl\middleware/ble/cy_ble_gap.h ****  * CY_BLE_PENDING_CCCD_FLASH_WRITE_BIT flag is set after write to CCCD event when a
 589:Generated_Source\PSoC6\pdl\middleware/ble/cy_ble_gap.h ****  * peer device supports bonding (cy_ble_peerBonding[eventParam->connHandle.attId] == CY_BLE_GAP_BON
 590:Generated_Source\PSoC6\pdl\middleware/ble/cy_ble_gap.h ****  * CY_BLE_PENDING_STACK_FLASH_WRITE_BIT flag is set after CY_BLE_EVT_PENDING_FLASH_WRITE event.
 591:Generated_Source\PSoC6\pdl\middleware/ble/cy_ble_gap.h ****  * Cy_BLE_StoreBondingData() should be called to store pending bonding data.
 592:Generated_Source\PSoC6\pdl\middleware/ble/cy_ble_gap.h ****  * This function automatically clears pending bits after write operation is complete.
 593:Generated_Source\PSoC6\pdl\middleware/ble/cy_ble_gap.h ****  */
 594:Generated_Source\PSoC6\pdl\middleware/ble/cy_ble_gap.h **** extern uint8_t cy_ble_pendingFlashWrite;
 595:Generated_Source\PSoC6\pdl\middleware/ble/cy_ble_gap.h **** /** @} group_ble_common_api_global_variables */
 596:Generated_Source\PSoC6\pdl\middleware/ble/cy_ble_gap.h **** 
 597:Generated_Source\PSoC6\pdl\middleware/ble/cy_ble_gap.h **** /** Bonding type setting of peer device, CY_BLE_GAP_BONDING_NONE or CY_BLE_GAP_BONDING.
 598:Generated_Source\PSoC6\pdl\middleware/ble/cy_ble_gap.h ****  * It is initialized after pairing with peer device and used for cy_ble_pendingFlashWrite variable
 599:Generated_Source\PSoC6\pdl\middleware/ble/cy_ble_gap.h ****  * setting.
 600:Generated_Source\PSoC6\pdl\middleware/ble/cy_ble_gap.h ****  */
 601:Generated_Source\PSoC6\pdl\middleware/ble/cy_ble_gap.h **** extern uint8_t cy_ble_peerBonding[CY_BLE_CONN_COUNT];
 602:Generated_Source\PSoC6\pdl\middleware/ble/cy_ble_gap.h **** 
 603:Generated_Source\PSoC6\pdl\middleware/ble/cy_ble_gap.h **** #endif  /* (CY_BLE_BONDING_REQUIREMENT == CY_BLE_BONDING_YES) */
 604:Generated_Source\PSoC6\pdl\middleware/ble/cy_ble_gap.h **** 
 605:Generated_Source\PSoC6\pdl\middleware/ble/cy_ble_gap.h **** 
 606:Generated_Source\PSoC6\pdl\middleware/ble/cy_ble_gap.h **** /***************************************
 607:Generated_Source\PSoC6\pdl\middleware/ble/cy_ble_gap.h **** * Exported Functions (MACROS)
 608:Generated_Source\PSoC6\pdl\middleware/ble/cy_ble_gap.h **** ***************************************/
 609:Generated_Source\PSoC6\pdl\middleware/ble/cy_ble_gap.h **** #if ((CY_BLE_GAP_ROLE_PERIPHERAL || CY_BLE_GAP_ROLE_CENTRAL))
 610:Generated_Source\PSoC6\pdl\middleware/ble/cy_ble_gap.h **** 
 611:Generated_Source\PSoC6\pdl\middleware/ble/cy_ble_gap.h **** /******************************************************************************
 612:Generated_Source\PSoC6\pdl\middleware/ble/cy_ble_gap.h **** * Function Name: Cy_BLE_GetConnHandleIdx
 613:Generated_Source\PSoC6\pdl\middleware/ble/cy_ble_gap.h **** ***************************************************************************//**
 614:Generated_Source\PSoC6\pdl\middleware/ble/cy_ble_gap.h **** *
 615:Generated_Source\PSoC6\pdl\middleware/ble/cy_ble_gap.h **** *  This function searches the array of connection handles (cy_ble_connHandle[])
 616:Generated_Source\PSoC6\pdl\middleware/ble/cy_ble_gap.h **** *  for the location (index) of a handle that corresponds to the input parameter
 617:Generated_Source\PSoC6\pdl\middleware/ble/cy_ble_gap.h **** *  connHandle. bdHandle.
 618:Generated_Source\PSoC6\pdl\middleware/ble/cy_ble_gap.h **** *
 619:Generated_Source\PSoC6\pdl\middleware/ble/cy_ble_gap.h **** *  This function is designated for internal usage.
 620:Generated_Source\PSoC6\pdl\middleware/ble/cy_ble_gap.h **** *
 621:Generated_Source\PSoC6\pdl\middleware/ble/cy_ble_gap.h **** *  \param connHandle: The connection handle.
 622:Generated_Source\PSoC6\pdl\middleware/ble/cy_ble_gap.h **** *
 623:Generated_Source\PSoC6\pdl\middleware/ble/cy_ble_gap.h **** *  \return
 624:Generated_Source\PSoC6\pdl\middleware/ble/cy_ble_gap.h **** *  retValue: the index of connHandle
 625:Generated_Source\PSoC6\pdl\middleware/ble/cy_ble_gap.h **** *
 626:Generated_Source\PSoC6\pdl\middleware/ble/cy_ble_gap.h **** ******************************************************************************/
 627:Generated_Source\PSoC6\pdl\middleware/ble/cy_ble_gap.h **** __STATIC_INLINE uint8_t Cy_BLE_GetConnHandleIdx(cy_stc_ble_conn_handle_t connHandle)
 628:Generated_Source\PSoC6\pdl\middleware/ble/cy_ble_gap.h **** {
 629:Generated_Source\PSoC6\pdl\middleware/ble/cy_ble_gap.h ****     uint8_t idx;
 630:Generated_Source\PSoC6\pdl\middleware/ble/cy_ble_gap.h ****     uint8_t retValue = CY_BLE_CONN_COUNT;
 631:Generated_Source\PSoC6\pdl\middleware/ble/cy_ble_gap.h **** 
 632:Generated_Source\PSoC6\pdl\middleware/ble/cy_ble_gap.h ****     for(idx = 0u; idx < CY_BLE_CONN_COUNT; idx++)
 633:Generated_Source\PSoC6\pdl\middleware/ble/cy_ble_gap.h ****     {
ARM GAS  C:\Users\Austina\AppData\Local\Temp\ccmbhoja.s 			page 18


 634:Generated_Source\PSoC6\pdl\middleware/ble/cy_ble_gap.h ****         if(cy_ble_connHandle[idx].bdHandle == connHandle.bdHandle)
 635:Generated_Source\PSoC6\pdl\middleware/ble/cy_ble_gap.h ****         {
 636:Generated_Source\PSoC6\pdl\middleware/ble/cy_ble_gap.h ****             retValue = idx;
 637:Generated_Source\PSoC6\pdl\middleware/ble/cy_ble_gap.h ****             break;
 638:Generated_Source\PSoC6\pdl\middleware/ble/cy_ble_gap.h ****         }
 639:Generated_Source\PSoC6\pdl\middleware/ble/cy_ble_gap.h ****     }
 640:Generated_Source\PSoC6\pdl\middleware/ble/cy_ble_gap.h ****     if(retValue == CY_BLE_CONN_COUNT)
 641:Generated_Source\PSoC6\pdl\middleware/ble/cy_ble_gap.h ****     {
 642:Generated_Source\PSoC6\pdl\middleware/ble/cy_ble_gap.h ****         /* HALT in debug mode */
 643:Generated_Source\PSoC6\pdl\middleware/ble/cy_ble_gap.h ****         CY_ASSERT(retValue != CY_BLE_CONN_COUNT);
 644:Generated_Source\PSoC6\pdl\middleware/ble/cy_ble_gap.h ****         retValue = 0u;
 645:Generated_Source\PSoC6\pdl\middleware/ble/cy_ble_gap.h ****     }
 646:Generated_Source\PSoC6\pdl\middleware/ble/cy_ble_gap.h **** 
 647:Generated_Source\PSoC6\pdl\middleware/ble/cy_ble_gap.h ****     return(retValue);
 648:Generated_Source\PSoC6\pdl\middleware/ble/cy_ble_gap.h **** }
 649:Generated_Source\PSoC6\pdl\middleware/ble/cy_ble_gap.h **** #endif  /* ((CY_BLE_GAP_ROLE_PERIPHERAL || CY_BLE_GAP_ROLE_CENTRAL)) */
 650:Generated_Source\PSoC6\pdl\middleware/ble/cy_ble_gap.h **** 
 651:Generated_Source\PSoC6\pdl\middleware/ble/cy_ble_gap.h **** /**
 652:Generated_Source\PSoC6\pdl\middleware/ble/cy_ble_gap.h ****  * \addtogroup group_ble_common_api_functions
 653:Generated_Source\PSoC6\pdl\middleware/ble/cy_ble_gap.h ****  * @{
 654:Generated_Source\PSoC6\pdl\middleware/ble/cy_ble_gap.h **** */
 655:Generated_Source\PSoC6\pdl\middleware/ble/cy_ble_gap.h **** /******************************************************************************
 656:Generated_Source\PSoC6\pdl\middleware/ble/cy_ble_gap.h **** * Function Name: Cy_BLE_GetState
 657:Generated_Source\PSoC6\pdl\middleware/ble/cy_ble_gap.h **** ***************************************************************************//**
 658:Generated_Source\PSoC6\pdl\middleware/ble/cy_ble_gap.h **** *
 659:Generated_Source\PSoC6\pdl\middleware/ble/cy_ble_gap.h **** *  This function is used to determine the current state of the BLE Middleware
 660:Generated_Source\PSoC6\pdl\middleware/ble/cy_ble_gap.h **** *  state machine :
 661:Generated_Source\PSoC6\pdl\middleware/ble/cy_ble_gap.h **** *
 662:Generated_Source\PSoC6\pdl\middleware/ble/cy_ble_gap.h **** *  \image html ble_middleware_state_machine.png
 663:Generated_Source\PSoC6\pdl\middleware/ble/cy_ble_gap.h **** *
 664:Generated_Source\PSoC6\pdl\middleware/ble/cy_ble_gap.h **** *  The BLE Middleware is in the state #CY_BLE_STATE_INITIALIZING after the
 665:Generated_Source\PSoC6\pdl\middleware/ble/cy_ble_gap.h **** *  Cy_BLE_Enable() is called and until the #CY_BLE_EVT_STACK_ON event is not
 666:Generated_Source\PSoC6\pdl\middleware/ble/cy_ble_gap.h **** *  received. After successful initialization the state is changed to
 667:Generated_Source\PSoC6\pdl\middleware/ble/cy_ble_gap.h **** *  #CY_BLE_STATE_ON.
 668:Generated_Source\PSoC6\pdl\middleware/ble/cy_ble_gap.h **** *
 669:Generated_Source\PSoC6\pdl\middleware/ble/cy_ble_gap.h **** *  The BLE Middleware is in the state #CY_BLE_STATE_STOPPED
 670:Generated_Source\PSoC6\pdl\middleware/ble/cy_ble_gap.h **** *  when the #CY_BLE_EVT_STACK_SHUTDOWN_COMPLETE event is received (after the
 671:Generated_Source\PSoC6\pdl\middleware/ble/cy_ble_gap.h **** *  Cy_BLE_Disable() is called).
 672:Generated_Source\PSoC6\pdl\middleware/ble/cy_ble_gap.h **** *
 673:Generated_Source\PSoC6\pdl\middleware/ble/cy_ble_gap.h **** *  For GAP Central role when the Cy_BLE_GAPC_ConnectDevice() is called, the state
 674:Generated_Source\PSoC6\pdl\middleware/ble/cy_ble_gap.h **** *  is changed to #CY_BLE_STATE_CONNECTING. After successful connection indicated
 675:Generated_Source\PSoC6\pdl\middleware/ble/cy_ble_gap.h **** *  by #CY_BLE_EVT_GAP_DEVICE_CONNECTED or #CY_BLE_EVT_GAP_ENHANCE_CONN_COMPLETE
 676:Generated_Source\PSoC6\pdl\middleware/ble/cy_ble_gap.h **** *  event or the timeout indicated by #CY_BLE_EVT_TIMEOUT event, the state is
 677:Generated_Source\PSoC6\pdl\middleware/ble/cy_ble_gap.h **** *  changed to #CY_BLE_STATE_ON.
 678:Generated_Source\PSoC6\pdl\middleware/ble/cy_ble_gap.h **** *
 679:Generated_Source\PSoC6\pdl\middleware/ble/cy_ble_gap.h **** * \return
 680:Generated_Source\PSoC6\pdl\middleware/ble/cy_ble_gap.h **** * \ref cy_en_ble_state_t : The current BLE Middleware state. The following are
 681:Generated_Source\PSoC6\pdl\middleware/ble/cy_ble_gap.h **** *                         possible states:
 682:Generated_Source\PSoC6\pdl\middleware/ble/cy_ble_gap.h **** *
 683:Generated_Source\PSoC6\pdl\middleware/ble/cy_ble_gap.h **** *   State                      | Description
 684:Generated_Source\PSoC6\pdl\middleware/ble/cy_ble_gap.h **** *   -------------------------- | -----------
 685:Generated_Source\PSoC6\pdl\middleware/ble/cy_ble_gap.h **** *   CY_BLE_STATE_STOPPED       | BLE is turned off.
 686:Generated_Source\PSoC6\pdl\middleware/ble/cy_ble_gap.h **** *   CY_BLE_STATE_INITIALIZING  | BLE is initializing (waiting for #CY_BLE_EVT_STACK_ON event).
 687:Generated_Source\PSoC6\pdl\middleware/ble/cy_ble_gap.h **** *   CY_BLE_STATE_ON            | BLE is turned on.
 688:Generated_Source\PSoC6\pdl\middleware/ble/cy_ble_gap.h **** *   CY_BLE_STATE_CONNECTING    | BLE is connecting.
 689:Generated_Source\PSoC6\pdl\middleware/ble/cy_ble_gap.h **** 
 690:Generated_Source\PSoC6\pdl\middleware/ble/cy_ble_gap.h **** ******************************************************************************/
ARM GAS  C:\Users\Austina\AppData\Local\Temp\ccmbhoja.s 			page 19


 691:Generated_Source\PSoC6\pdl\middleware/ble/cy_ble_gap.h **** #define Cy_BLE_GetState()    (cy_ble_state)
 692:Generated_Source\PSoC6\pdl\middleware/ble/cy_ble_gap.h **** 
 693:Generated_Source\PSoC6\pdl\middleware/ble/cy_ble_gap.h **** /** \cond IGNORE */
 694:Generated_Source\PSoC6\pdl\middleware/ble/cy_ble_gap.h **** /******************************************************************************
 695:Generated_Source\PSoC6\pdl\middleware/ble/cy_ble_gap.h **** * Function Name: Cy_BLE_SetState
 696:Generated_Source\PSoC6\pdl\middleware/ble/cy_ble_gap.h **** ***************************************************************************//**
 697:Generated_Source\PSoC6\pdl\middleware/ble/cy_ble_gap.h **** *
 698:Generated_Source\PSoC6\pdl\middleware/ble/cy_ble_gap.h **** *  Used to set the BLE Middleware state machine's state.
 699:Generated_Source\PSoC6\pdl\middleware/ble/cy_ble_gap.h **** *
 700:Generated_Source\PSoC6\pdl\middleware/ble/cy_ble_gap.h **** *  \param state: The desired state to which the event handler's
 701:Generated_Source\PSoC6\pdl\middleware/ble/cy_ble_gap.h **** *   state machine should be set. The parameter state is a variable
 702:Generated_Source\PSoC6\pdl\middleware/ble/cy_ble_gap.h **** *   of type cy_en_ble_state_t.
 703:Generated_Source\PSoC6\pdl\middleware/ble/cy_ble_gap.h **** *
 704:Generated_Source\PSoC6\pdl\middleware/ble/cy_ble_gap.h **** * \return
 705:Generated_Source\PSoC6\pdl\middleware/ble/cy_ble_gap.h **** *  None
 706:Generated_Source\PSoC6\pdl\middleware/ble/cy_ble_gap.h **** *
 707:Generated_Source\PSoC6\pdl\middleware/ble/cy_ble_gap.h **** ******************************************************************************/
 708:Generated_Source\PSoC6\pdl\middleware/ble/cy_ble_gap.h **** #define Cy_BLE_SetState(state)    (cy_ble_state = (state))
 709:Generated_Source\PSoC6\pdl\middleware/ble/cy_ble_gap.h **** /** \endcond */
 710:Generated_Source\PSoC6\pdl\middleware/ble/cy_ble_gap.h **** 
 711:Generated_Source\PSoC6\pdl\middleware/ble/cy_ble_gap.h **** #if (CY_BLE_GAP_ROLE_PERIPHERAL || CY_BLE_GAP_ROLE_BROADCASTER)
 712:Generated_Source\PSoC6\pdl\middleware/ble/cy_ble_gap.h **** 
 713:Generated_Source\PSoC6\pdl\middleware/ble/cy_ble_gap.h **** 
 714:Generated_Source\PSoC6\pdl\middleware/ble/cy_ble_gap.h **** /******************************************************************************
 715:Generated_Source\PSoC6\pdl\middleware/ble/cy_ble_gap.h **** * Function Name: Cy_BLE_GetAdvertisementState
 716:Generated_Source\PSoC6\pdl\middleware/ble/cy_ble_gap.h **** ***************************************************************************//**
 717:Generated_Source\PSoC6\pdl\middleware/ble/cy_ble_gap.h **** *
 718:Generated_Source\PSoC6\pdl\middleware/ble/cy_ble_gap.h **** *  This function returns the state of the link layer hardware advertisement
 719:Generated_Source\PSoC6\pdl\middleware/ble/cy_ble_gap.h **** *  engine.
 720:Generated_Source\PSoC6\pdl\middleware/ble/cy_ble_gap.h **** *
 721:Generated_Source\PSoC6\pdl\middleware/ble/cy_ble_gap.h **** *  \image html ble_advertisement_state_machine.png
 722:Generated_Source\PSoC6\pdl\middleware/ble/cy_ble_gap.h **** *
 723:Generated_Source\PSoC6\pdl\middleware/ble/cy_ble_gap.h **** *  When Cy_BLE_GAPP_StartAdvertisement() is called, the state is set to
 724:Generated_Source\PSoC6\pdl\middleware/ble/cy_ble_gap.h **** *  #CY_BLE_ADV_STATE_ADV_INITIATED. It automatically changes to
 725:Generated_Source\PSoC6\pdl\middleware/ble/cy_ble_gap.h **** *  #CY_BLE_ADV_STATE_ADVERTISING when #CY_BLE_EVT_GAPP_ADVERTISEMENT_START_STOP
 726:Generated_Source\PSoC6\pdl\middleware/ble/cy_ble_gap.h **** *  event is received. When Cy_BLE_GAPP_StopAdvertisement() is called, the
 727:Generated_Source\PSoC6\pdl\middleware/ble/cy_ble_gap.h **** *  state is set to #CY_BLE_ADV_STATE_STOP_INITIATED. It automatically changes
 728:Generated_Source\PSoC6\pdl\middleware/ble/cy_ble_gap.h **** *  to #CY_BLE_ADV_STATE_STOPPED when the #CY_BLE_EVT_GAPP_ADVERTISEMENT_START_STOP
 729:Generated_Source\PSoC6\pdl\middleware/ble/cy_ble_gap.h **** *  event is received.
 730:Generated_Source\PSoC6\pdl\middleware/ble/cy_ble_gap.h **** *
 731:Generated_Source\PSoC6\pdl\middleware/ble/cy_ble_gap.h **** * \return
 732:Generated_Source\PSoC6\pdl\middleware/ble/cy_ble_gap.h **** * \ref cy_en_ble_adv_state_t :The current advertising state. The following are
 733:Generated_Source\PSoC6\pdl\middleware/ble/cy_ble_gap.h **** *                              possible states.
 734:Generated_Source\PSoC6\pdl\middleware/ble/cy_ble_gap.h **** *
 735:Generated_Source\PSoC6\pdl\middleware/ble/cy_ble_gap.h **** *               State                |         Description
 736:Generated_Source\PSoC6\pdl\middleware/ble/cy_ble_gap.h **** *   -------------------------------- | -----------------------------
 737:Generated_Source\PSoC6\pdl\middleware/ble/cy_ble_gap.h **** *   CY_BLE_ADV_STATE_STOPPED         | Advertising is stopped.
 738:Generated_Source\PSoC6\pdl\middleware/ble/cy_ble_gap.h **** *   CY_BLE_ADV_STATE_ADV_INITIATED   | Advertising is initiated.
 739:Generated_Source\PSoC6\pdl\middleware/ble/cy_ble_gap.h **** *   CY_BLE_ADV_STATE_ADVERTISING     | Advertising is initiated.
 740:Generated_Source\PSoC6\pdl\middleware/ble/cy_ble_gap.h **** *   CY_BLE_ADV_STATE_STOP_INITIATED  | Stop advertising is initiated.
 741:Generated_Source\PSoC6\pdl\middleware/ble/cy_ble_gap.h **** *
 742:Generated_Source\PSoC6\pdl\middleware/ble/cy_ble_gap.h **** ******************************************************************************/
 743:Generated_Source\PSoC6\pdl\middleware/ble/cy_ble_gap.h **** __STATIC_INLINE cy_en_ble_adv_state_t Cy_BLE_GetAdvertisementState(void)
 744:Generated_Source\PSoC6\pdl\middleware/ble/cy_ble_gap.h **** {
 745:Generated_Source\PSoC6\pdl\middleware/ble/cy_ble_gap.h ****     return(cy_ble_advState);
 746:Generated_Source\PSoC6\pdl\middleware/ble/cy_ble_gap.h **** }
 747:Generated_Source\PSoC6\pdl\middleware/ble/cy_ble_gap.h **** 
ARM GAS  C:\Users\Austina\AppData\Local\Temp\ccmbhoja.s 			page 20


 748:Generated_Source\PSoC6\pdl\middleware/ble/cy_ble_gap.h **** /** \cond IGNORE */
 749:Generated_Source\PSoC6\pdl\middleware/ble/cy_ble_gap.h **** /******************************************************************************
 750:Generated_Source\PSoC6\pdl\middleware/ble/cy_ble_gap.h **** * Function Name: Cy_BLE_SetAdvertisementState
 751:Generated_Source\PSoC6\pdl\middleware/ble/cy_ble_gap.h **** ***************************************************************************//**
 752:Generated_Source\PSoC6\pdl\middleware/ble/cy_ble_gap.h **** *
 753:Generated_Source\PSoC6\pdl\middleware/ble/cy_ble_gap.h **** *  Used to set the state of the link layer hardware advertisement engine.
 754:Generated_Source\PSoC6\pdl\middleware/ble/cy_ble_gap.h **** *
 755:Generated_Source\PSoC6\pdl\middleware/ble/cy_ble_gap.h **** *  \param state: The desired state.
 756:Generated_Source\PSoC6\pdl\middleware/ble/cy_ble_gap.h **** *
 757:Generated_Source\PSoC6\pdl\middleware/ble/cy_ble_gap.h **** * \return
 758:Generated_Source\PSoC6\pdl\middleware/ble/cy_ble_gap.h **** *  None
 759:Generated_Source\PSoC6\pdl\middleware/ble/cy_ble_gap.h **** *
 760:Generated_Source\PSoC6\pdl\middleware/ble/cy_ble_gap.h **** ******************************************************************************/
 761:Generated_Source\PSoC6\pdl\middleware/ble/cy_ble_gap.h **** __STATIC_INLINE void Cy_BLE_SetAdvertisementState(cy_en_ble_adv_state_t state)
 762:Generated_Source\PSoC6\pdl\middleware/ble/cy_ble_gap.h **** {
 763:Generated_Source\PSoC6\pdl\middleware/ble/cy_ble_gap.h ****     cy_ble_advState = state;
 764:Generated_Source\PSoC6\pdl\middleware/ble/cy_ble_gap.h **** }
 765:Generated_Source\PSoC6\pdl\middleware/ble/cy_ble_gap.h **** /** \endcond */
 766:Generated_Source\PSoC6\pdl\middleware/ble/cy_ble_gap.h **** 
 767:Generated_Source\PSoC6\pdl\middleware/ble/cy_ble_gap.h **** #endif /* (CY_BLE_GAP_ROLE_PERIPHERAL || CY_BLE_GAP_ROLE_BROADCASTER) */
 768:Generated_Source\PSoC6\pdl\middleware/ble/cy_ble_gap.h **** 
 769:Generated_Source\PSoC6\pdl\middleware/ble/cy_ble_gap.h **** #if (CY_BLE_GAP_ROLE_CENTRAL || CY_BLE_GAP_ROLE_OBSERVER)
 770:Generated_Source\PSoC6\pdl\middleware/ble/cy_ble_gap.h **** 
 771:Generated_Source\PSoC6\pdl\middleware/ble/cy_ble_gap.h **** /******************************************************************************
 772:Generated_Source\PSoC6\pdl\middleware/ble/cy_ble_gap.h **** * Function Name: Cy_BLE_GetScanState
 773:Generated_Source\PSoC6\pdl\middleware/ble/cy_ble_gap.h **** ***************************************************************************//**
 774:Generated_Source\PSoC6\pdl\middleware/ble/cy_ble_gap.h **** *
 775:Generated_Source\PSoC6\pdl\middleware/ble/cy_ble_gap.h **** *  This returns the state of the link layer hardware scan engine.
 776:Generated_Source\PSoC6\pdl\middleware/ble/cy_ble_gap.h **** *
 777:Generated_Source\PSoC6\pdl\middleware/ble/cy_ble_gap.h **** *  \image html ble_scanning_state_machine.png
 778:Generated_Source\PSoC6\pdl\middleware/ble/cy_ble_gap.h **** *
 779:Generated_Source\PSoC6\pdl\middleware/ble/cy_ble_gap.h **** *  When Cy_BLE_GAPC_StartScan() is called the state is set to
 780:Generated_Source\PSoC6\pdl\middleware/ble/cy_ble_gap.h **** *  #CY_BLE_SCAN_STATE_SCAN_INITIATED. It automatically changes to
 781:Generated_Source\PSoC6\pdl\middleware/ble/cy_ble_gap.h **** *  #CY_BLE_SCAN_STATE_SCANNING when the #CY_BLE_EVT_GAPC_SCAN_START_STOP event is
 782:Generated_Source\PSoC6\pdl\middleware/ble/cy_ble_gap.h **** *  received.
 783:Generated_Source\PSoC6\pdl\middleware/ble/cy_ble_gap.h **** *  When Cy_BLE_GAPC_StopScan() is called, the state is set to
 784:Generated_Source\PSoC6\pdl\middleware/ble/cy_ble_gap.h **** *  #CY_BLE_SCAN_STATE_STOP_INITIATED. It automatically changes to
 785:Generated_Source\PSoC6\pdl\middleware/ble/cy_ble_gap.h **** *  #CY_BLE_SCAN_STATE_STOPPED when the #CY_BLE_EVT_GAPC_SCAN_START_STOP event is
 786:Generated_Source\PSoC6\pdl\middleware/ble/cy_ble_gap.h **** *  received.
 787:Generated_Source\PSoC6\pdl\middleware/ble/cy_ble_gap.h **** *
 788:Generated_Source\PSoC6\pdl\middleware/ble/cy_ble_gap.h **** *  \return
 789:Generated_Source\PSoC6\pdl\middleware/ble/cy_ble_gap.h **** *  \ref cy_en_ble_scan_state_t : The current scan state. The following are
 790:Generated_Source\PSoC6\pdl\middleware/ble/cy_ble_gap.h **** *                                possible states.
 791:Generated_Source\PSoC6\pdl\middleware/ble/cy_ble_gap.h **** *
 792:Generated_Source\PSoC6\pdl\middleware/ble/cy_ble_gap.h **** *               State                |         Description
 793:Generated_Source\PSoC6\pdl\middleware/ble/cy_ble_gap.h **** *   -------------------------------- | -----------------------------
 794:Generated_Source\PSoC6\pdl\middleware/ble/cy_ble_gap.h **** *   CY_BLE_SCAN_STATE_STOPPED        | Scanning is stopped.
 795:Generated_Source\PSoC6\pdl\middleware/ble/cy_ble_gap.h **** *   CY_BLE_SCAN_STATE_SCAN_INITIATED | Scanning is initiated.
 796:Generated_Source\PSoC6\pdl\middleware/ble/cy_ble_gap.h **** *   CY_BLE_SCAN_STATE_SCANNING       | Scanning process.
 797:Generated_Source\PSoC6\pdl\middleware/ble/cy_ble_gap.h **** *   CY_BLE_SCAN_STATE_STOP_INITIATED | Stop scanning is initiated.
 798:Generated_Source\PSoC6\pdl\middleware/ble/cy_ble_gap.h **** *
 799:Generated_Source\PSoC6\pdl\middleware/ble/cy_ble_gap.h **** ******************************************************************************/
 800:Generated_Source\PSoC6\pdl\middleware/ble/cy_ble_gap.h **** __STATIC_INLINE cy_en_ble_scan_state_t Cy_BLE_GetScanState(void)
 801:Generated_Source\PSoC6\pdl\middleware/ble/cy_ble_gap.h **** {
 802:Generated_Source\PSoC6\pdl\middleware/ble/cy_ble_gap.h ****     return(cy_ble_scanState);
 803:Generated_Source\PSoC6\pdl\middleware/ble/cy_ble_gap.h **** }
 804:Generated_Source\PSoC6\pdl\middleware/ble/cy_ble_gap.h **** 
ARM GAS  C:\Users\Austina\AppData\Local\Temp\ccmbhoja.s 			page 21


 805:Generated_Source\PSoC6\pdl\middleware/ble/cy_ble_gap.h **** /** \cond IGNORE */
 806:Generated_Source\PSoC6\pdl\middleware/ble/cy_ble_gap.h **** /******************************************************************************
 807:Generated_Source\PSoC6\pdl\middleware/ble/cy_ble_gap.h **** * Function Name: Cy_BLE_SetScanState
 808:Generated_Source\PSoC6\pdl\middleware/ble/cy_ble_gap.h **** ***************************************************************************//**
 809:Generated_Source\PSoC6\pdl\middleware/ble/cy_ble_gap.h **** *
 810:Generated_Source\PSoC6\pdl\middleware/ble/cy_ble_gap.h **** *  Used to set the state of the link layer hardware scan engine.
 811:Generated_Source\PSoC6\pdl\middleware/ble/cy_ble_gap.h **** *
 812:Generated_Source\PSoC6\pdl\middleware/ble/cy_ble_gap.h **** *  \param state: The desired state.
 813:Generated_Source\PSoC6\pdl\middleware/ble/cy_ble_gap.h **** *
 814:Generated_Source\PSoC6\pdl\middleware/ble/cy_ble_gap.h **** *  \return
 815:Generated_Source\PSoC6\pdl\middleware/ble/cy_ble_gap.h **** *  None
 816:Generated_Source\PSoC6\pdl\middleware/ble/cy_ble_gap.h **** *
 817:Generated_Source\PSoC6\pdl\middleware/ble/cy_ble_gap.h **** ******************************************************************************/
 818:Generated_Source\PSoC6\pdl\middleware/ble/cy_ble_gap.h **** __STATIC_INLINE void Cy_BLE_SetScanState(cy_en_ble_scan_state_t state)
 819:Generated_Source\PSoC6\pdl\middleware/ble/cy_ble_gap.h **** {
 820:Generated_Source\PSoC6\pdl\middleware/ble/cy_ble_gap.h ****     cy_ble_scanState = state;
 821:Generated_Source\PSoC6\pdl\middleware/ble/cy_ble_gap.h **** }
 822:Generated_Source\PSoC6\pdl\middleware/ble/cy_ble_gap.h **** /** \endcond */
 823:Generated_Source\PSoC6\pdl\middleware/ble/cy_ble_gap.h **** 
 824:Generated_Source\PSoC6\pdl\middleware/ble/cy_ble_gap.h **** #endif  /* (CY_BLE_GAP_ROLE_CENTRAL || CY_BLE_GAP_ROLE_OBSERVER) */
 825:Generated_Source\PSoC6\pdl\middleware/ble/cy_ble_gap.h **** 
 826:Generated_Source\PSoC6\pdl\middleware/ble/cy_ble_gap.h **** 
 827:Generated_Source\PSoC6\pdl\middleware/ble/cy_ble_gap.h **** #if ((CY_BLE_GAP_ROLE_PERIPHERAL || CY_BLE_GAP_ROLE_CENTRAL))
 828:Generated_Source\PSoC6\pdl\middleware/ble/cy_ble_gap.h **** 
 829:Generated_Source\PSoC6\pdl\middleware/ble/cy_ble_gap.h **** /******************************************************************************
 830:Generated_Source\PSoC6\pdl\middleware/ble/cy_ble_gap.h **** * Function Name: Cy_BLE_GetConnectionState
 831:Generated_Source\PSoC6\pdl\middleware/ble/cy_ble_gap.h **** ***************************************************************************//**
 832:Generated_Source\PSoC6\pdl\middleware/ble/cy_ble_gap.h **** *  This function returns the state of the BLE link for the specified connection
 833:Generated_Source\PSoC6\pdl\middleware/ble/cy_ble_gap.h **** *  handle.
 834:Generated_Source\PSoC6\pdl\middleware/ble/cy_ble_gap.h **** *
 835:Generated_Source\PSoC6\pdl\middleware/ble/cy_ble_gap.h **** *  The state is set to #CY_BLE_CONN_STATE_CONNECTED when #CY_BLE_EVT_GATT_CONNECT_IND
 836:Generated_Source\PSoC6\pdl\middleware/ble/cy_ble_gap.h **** *  event is received with the corresponding connection handle.
 837:Generated_Source\PSoC6\pdl\middleware/ble/cy_ble_gap.h **** *  The state is set to #CY_BLE_CONN_STATE_DISCONNECTED when the
 838:Generated_Source\PSoC6\pdl\middleware/ble/cy_ble_gap.h **** *  #CY_BLE_EVT_GATT_DISCONNECT_IND event is received.
 839:Generated_Source\PSoC6\pdl\middleware/ble/cy_ble_gap.h **** *
 840:Generated_Source\PSoC6\pdl\middleware/ble/cy_ble_gap.h **** *  For GATT Client role when Cy_BLE_GATTC_StartDiscovery() is called, the state
 841:Generated_Source\PSoC6\pdl\middleware/ble/cy_ble_gap.h **** *  indicates the current flow of the discovery procedure by
 842:Generated_Source\PSoC6\pdl\middleware/ble/cy_ble_gap.h **** *  #CY_BLE_CONN_STATE_CLIENT_SRVC_DISCOVERING,
 843:Generated_Source\PSoC6\pdl\middleware/ble/cy_ble_gap.h **** *  #CY_BLE_CONN_STATE_CLIENT_INCL_DISCOVERING,
 844:Generated_Source\PSoC6\pdl\middleware/ble/cy_ble_gap.h **** *  #CY_BLE_CONN_STATE_CLIENT_CHAR_DISCOVERING,
 845:Generated_Source\PSoC6\pdl\middleware/ble/cy_ble_gap.h **** *  #CY_BLE_CONN_STATE_CLIENT_DESCR_DISCOVERING and changes to
 846:Generated_Source\PSoC6\pdl\middleware/ble/cy_ble_gap.h **** *  #CY_BLE_CONN_STATE_CLIENT_DISCOVERED when the procedure successfully completes.
 847:Generated_Source\PSoC6\pdl\middleware/ble/cy_ble_gap.h **** *
 848:Generated_Source\PSoC6\pdl\middleware/ble/cy_ble_gap.h **** *  The state changes from #CY_BLE_CONN_STATE_CLIENT_DISCOVERED to
 849:Generated_Source\PSoC6\pdl\middleware/ble/cy_ble_gap.h **** *  #CY_BLE_CONN_STATE_CLIENT_DISCONNECTED_DISCOVERED when
 850:Generated_Source\PSoC6\pdl\middleware/ble/cy_ble_gap.h **** *  the #CY_BLE_EVT_GATT_DISCONNECT_IND event is received.
 851:Generated_Source\PSoC6\pdl\middleware/ble/cy_ble_gap.h **** *  The state comes backs to #CY_BLE_CONN_STATE_CLIENT_DISCOVERED when
 852:Generated_Source\PSoC6\pdl\middleware/ble/cy_ble_gap.h **** *  #CY_BLE_EVT_GATT_CONNECT_IND event is received and resolvable device
 853:Generated_Source\PSoC6\pdl\middleware/ble/cy_ble_gap.h **** *  address is not changed.
 854:Generated_Source\PSoC6\pdl\middleware/ble/cy_ble_gap.h **** *
 855:Generated_Source\PSoC6\pdl\middleware/ble/cy_ble_gap.h **** *  \param connHandle: The connection handle.
 856:Generated_Source\PSoC6\pdl\middleware/ble/cy_ble_gap.h **** *
 857:Generated_Source\PSoC6\pdl\middleware/ble/cy_ble_gap.h **** * \return
 858:Generated_Source\PSoC6\pdl\middleware/ble/cy_ble_gap.h **** * \ref cy_en_ble_conn_state_t : The current client state. The following are
 859:Generated_Source\PSoC6\pdl\middleware/ble/cy_ble_gap.h **** *                               possible states.
 860:Generated_Source\PSoC6\pdl\middleware/ble/cy_ble_gap.h **** *
 861:Generated_Source\PSoC6\pdl\middleware/ble/cy_ble_gap.h **** *               State                                |         Description
ARM GAS  C:\Users\Austina\AppData\Local\Temp\ccmbhoja.s 			page 22


 862:Generated_Source\PSoC6\pdl\middleware/ble/cy_ble_gap.h **** *   ------------------------------------------------ | -----------------------------
 863:Generated_Source\PSoC6\pdl\middleware/ble/cy_ble_gap.h **** *   CY_BLE_CONN_STATE_DISCONNECTED                   | Essentially idle state
 864:Generated_Source\PSoC6\pdl\middleware/ble/cy_ble_gap.h **** *   CY_BLE_CONN_STATE_CLIENT_DISCONNECTED_DISCOVERED | Server is disconnected but discovered.
 865:Generated_Source\PSoC6\pdl\middleware/ble/cy_ble_gap.h **** *   CY_BLE_CONN_STATE_CONNECTED                      | Peer device is connected for this and follow
 866:Generated_Source\PSoC6\pdl\middleware/ble/cy_ble_gap.h **** *   CY_BLE_CONN_STATE_CLIENT_SRVC_DISCOVERING        | Server services are being discovered.
 867:Generated_Source\PSoC6\pdl\middleware/ble/cy_ble_gap.h **** *   CY_BLE_CONN_STATE_CLIENT_INCL_DISCOVERING        | Server included services are being discovere
 868:Generated_Source\PSoC6\pdl\middleware/ble/cy_ble_gap.h **** *   CY_BLE_CONN_STATE_CLIENT_CHAR_DISCOVERING        | Server characteristics are being discovered
 869:Generated_Source\PSoC6\pdl\middleware/ble/cy_ble_gap.h **** *   CY_BLE_CONN_STATE_CLIENT_DESCR_DISCOVERING       | Server char. descriptors are being discovere
 870:Generated_Source\PSoC6\pdl\middleware/ble/cy_ble_gap.h **** *   CY_BLE_CONN_STATE_CLIENT_DISCOVERED              | Server is discovered
 871:Generated_Source\PSoC6\pdl\middleware/ble/cy_ble_gap.h **** *
 872:Generated_Source\PSoC6\pdl\middleware/ble/cy_ble_gap.h **** *  \funcusage
 873:Generated_Source\PSoC6\pdl\middleware/ble/cy_ble_gap.h **** *  \snippet ble\3.0\snippet\main.c BLE Common API: Cy_BLE_GetConnectionState()
 874:Generated_Source\PSoC6\pdl\middleware/ble/cy_ble_gap.h **** *
 875:Generated_Source\PSoC6\pdl\middleware/ble/cy_ble_gap.h **** ******************************************************************************/
 876:Generated_Source\PSoC6\pdl\middleware/ble/cy_ble_gap.h **** __STATIC_INLINE cy_en_ble_conn_state_t Cy_BLE_GetConnectionState(cy_stc_ble_conn_handle_t connHandl
 877:Generated_Source\PSoC6\pdl\middleware/ble/cy_ble_gap.h **** {
 878:Generated_Source\PSoC6\pdl\middleware/ble/cy_ble_gap.h ****     return((connHandle.attId < CY_BLE_CONN_COUNT) ? cy_ble_connState[connHandle.attId] : CY_BLE_CON
 128              		.loc 2 878 0
 129 0010 9DF80D30 		ldrb	r3, [sp, #13]	@ zero_extendqisi2
 130 0014 13B9     		cbnz	r3, .L18
 131 0016 294A     		ldr	r2, .L21+4
 132              	.LVL2:
 133 0018 D35C     		ldrb	r3, [r2, r3]	@ zero_extendqisi2
 134 001a 00E0     		b	.L10
 135              	.LVL3:
 136              	.L18:
 137 001c 0023     		movs	r3, #0
 138              	.LVL4:
 139              	.L10:
 140              	.LBE20:
 141              	.LBE19:
  38:BLETask.c     ****     {
 142              		.loc 1 38 0
 143 001e 072B     		cmp	r3, #7
 144 0020 22D0     		beq	.L19
  40:BLETask.c     ****         return;
 145              		.loc 1 40 0
 146 0022 2748     		ldr	r0, .L21+8
 147              	.LVL5:
 148 0024 FFF7FEFF 		bl	printf
 149              	.LVL6:
 150 0028 2648     		ldr	r0, .L21+12
 151 002a FFF7FEFF 		bl	printf
 152              	.LVL7:
 153 002e 2648     		ldr	r0, .L21+16
 154 0030 FFF7FEFF 		bl	puts
 155              	.LVL8:
  41:BLETask.c     ****     }
 156              		.loc 1 41 0
 157 0034 3DE0     		b	.L9
 158              	.LVL9:
 159              	.L14:
 160              	.LBB21:
  51:BLETask.c     ****         {
 161              		.loc 1 51 0
 162 0036 03EB4302 		add	r2, r3, r3, lsl #1
 163 003a 244C     		ldr	r4, .L21+20
ARM GAS  C:\Users\Austina\AppData\Local\Temp\ccmbhoja.s 			page 23


 164 003c A25C     		ldrb	r2, [r4, r2]	@ zero_extendqisi2
 165 003e 8242     		cmp	r2, r0
 166 0040 10D1     		bne	.L13
  51:BLETask.c     ****         {
 167              		.loc 1 51 0 is_stmt 0 discriminator 1
 168 0042 03EB4302 		add	r2, r3, r3, lsl #1
 169 0046 2244     		add	r2, r2, r4
 170 0048 5278     		ldrb	r2, [r2, #1]	@ zero_extendqisi2
 171 004a 8A42     		cmp	r2, r1
 172 004c 0AD1     		bne	.L13
  53:BLETask.c     ****         }
 173              		.loc 1 53 0 is_stmt 1
 174 004e 204A     		ldr	r2, .L21+24
 175 0050 D468     		ldr	r4, [r2, #12]
 176 0052 03EB4302 		add	r2, r3, r3, lsl #1
 177 0056 1D4D     		ldr	r5, .L21+20
 178 0058 2A44     		add	r2, r2, r5
 179 005a 9278     		ldrb	r2, [r2, #2]	@ zero_extendqisi2
 180 005c 1201     		lsls	r2, r2, #4
 181 005e A25A     		ldrh	r2, [r4, r2]
 182 0060 ADF81820 		strh	r2, [sp, #24]	@ movhi
 183              	.L13:
  49:BLETask.c     ****     {
 184              		.loc 1 49 0 discriminator 2
 185 0064 0133     		adds	r3, r3, #1
 186              	.LVL10:
 187 0066 00E0     		b	.L11
 188              	.LVL11:
 189              	.L19:
 190              	.LBE21:
 191 0068 0023     		movs	r3, #0
 192              	.L11:
 193              	.LVL12:
 194              	.LBB22:
  49:BLETask.c     ****     {
 195              		.loc 1 49 0 is_stmt 0 discriminator 1
 196 006a 072B     		cmp	r3, #7
 197 006c E3DD     		ble	.L14
 198              	.LBE22:
  58:BLETask.c     ****     myVal.handleValPair.value.val = (uint8_t *)&percent;
 199              		.loc 1 58 0 is_stmt 1
 200 006e 0123     		movs	r3, #1
 201              	.LVL13:
 202 0070 ADF81430 		strh	r3, [sp, #20]	@ movhi
  59:BLETask.c     ****     #ifdef BLE_PACKET_DEBUG_ENABLE
 203              		.loc 1 59 0
 204 0074 0DF10703 		add	r3, sp, #7
 205              	.LVL14:
 206 0078 0493     		str	r3, [sp, #16]
  63:BLETask.c     ****     
 207              		.loc 1 63 0
 208 007a 0F4B     		ldr	r3, .L21
 209              	.LVL15:
 210 007c 1B88     		ldrh	r3, [r3]	@ unaligned
 211 007e ADF81C30 		strh	r3, [sp, #28]	@ unaligned
 212              	.LVL16:
  65:BLETask.c     ****     //wait for the data transfer to complete
ARM GAS  C:\Users\Austina\AppData\Local\Temp\ccmbhoja.s 			page 24


 213              		.loc 1 65 0
 214 0082 0024     		movs	r4, #0
  67:BLETask.c     ****     {
 215              		.loc 1 67 0
 216 0084 10E0     		b	.L15
 217              	.LVL17:
 218              	.L16:
  69:BLETask.c     ****         i++;
 219              		.loc 1 69 0
 220 0086 FFF7FEFF 		bl	Cy_BLE_ProcessEvents
 221              	.LVL18:
  70:BLETask.c     ****         if(i > 0xFFFE)
 222              		.loc 1 70 0
 223 008a 0134     		adds	r4, r4, #1
 224              	.LVL19:
  71:BLETask.c     ****         {
 225              		.loc 1 71 0
 226 008c 4FF6FE73 		movw	r3, #65534
 227 0090 9C42     		cmp	r4, r3
 228 0092 09D9     		bls	.L15
  73:BLETask.c     ****             return;
 229              		.loc 1 73 0
 230 0094 0A48     		ldr	r0, .L21+8
 231 0096 FFF7FEFF 		bl	printf
 232              	.LVL20:
 233 009a 0E48     		ldr	r0, .L21+28
 234 009c FFF7FEFF 		bl	printf
 235              	.LVL21:
 236 00a0 0948     		ldr	r0, .L21+16
 237 00a2 FFF7FEFF 		bl	puts
 238              	.LVL22:
  74:BLETask.c     ****         }
 239              		.loc 1 74 0
 240 00a6 04E0     		b	.L9
 241              	.LVL23:
 242              	.L15:
  67:BLETask.c     ****     {
 243              		.loc 1 67 0
 244 00a8 04A8     		add	r0, sp, #16
 245 00aa FFF7FEFF 		bl	Cy_BLE_GATTC_WriteCharacteristicValue
 246              	.LVL24:
 247 00ae 0028     		cmp	r0, #0
 248 00b0 E9D1     		bne	.L16
 249              	.LVL25:
 250              	.L9:
  77:BLETask.c     **** 
 251              		.loc 1 77 0
 252 00b2 09B0     		add	sp, sp, #36
 253              		.cfi_def_cfa_offset 12
 254              		@ sp needed
 255 00b4 30BD     		pop	{r4, r5, pc}
 256              	.LVL26:
 257              	.L22:
 258 00b6 00BF     		.align	2
 259              	.L21:
 260 00b8 00000000 		.word	cy_ble_connHandle
 261 00bc 00000000 		.word	cy_ble_connState
ARM GAS  C:\Users\Austina\AppData\Local\Temp\ccmbhoja.s 			page 25


 262 00c0 00000000 		.word	.LC0
 263 00c4 14000000 		.word	.LC1
 264 00c8 24000000 		.word	.LC2
 265 00cc 00000000 		.word	.LANCHOR1
 266 00d0 00000000 		.word	cy_ble_customCServ
 267 00d4 28000000 		.word	.LC3
 268              		.cfi_endproc
 269              	.LFE531:
 270              		.size	writeMotorPosition, .-writeMotorPosition
 271              		.section	.text.findAdvInfo,"ax",%progbits
 272              		.align	2
 273              		.global	findAdvInfo
 274              		.thumb
 275              		.thumb_func
 276              		.type	findAdvInfo, %function
 277              	findAdvInfo:
 278              	.LFB532:
  90:BLETask.c     ****     memset (&currentAdvInfo,0,sizeof(currentAdvInfo));
 279              		.loc 1 90 0
 280              		.cfi_startproc
 281              		@ args = 0, pretend = 0, frame = 0
 282              		@ frame_needed = 0, uses_anonymous_args = 0
 283              		@ link register save eliminated.
 284              	.LVL27:
 285 0000 30B4     		push	{r4, r5}
 286              		.cfi_def_cfa_offset 8
 287              		.cfi_offset 4, -8
 288              		.cfi_offset 5, -4
  91:BLETask.c     ****     
 289              		.loc 1 91 0
 290 0002 134A     		ldr	r2, .L30
 291 0004 0023     		movs	r3, #0
 292 0006 1360     		str	r3, [r2]
 293 0008 5360     		str	r3, [r2, #4]
 294 000a 9360     		str	r3, [r2, #8]
 295 000c D360     		str	r3, [r2, #12]
 296              	.LVL28:
 297              	.LBB23:
  93:BLETask.c     ****     {
 298              		.loc 1 93 0
 299 000e 1BE0     		b	.L24
 300              	.LVL29:
 301              	.L28:
  95:BLETask.c     ****         {
 302              		.loc 1 95 0
 303 0010 1C46     		mov	r4, r3
 304 0012 C218     		adds	r2, r0, r3
 305 0014 5278     		ldrb	r2, [r2, #1]	@ zero_extendqisi2
 306 0016 072A     		cmp	r2, #7
 307 0018 02D0     		beq	.L26
 308 001a 092A     		cmp	r2, #9
 309 001c 08D0     		beq	.L27
 310 001e 0EE0     		b	.L25
 311              	.L26:
  99:BLETask.c     ****                 currentAdvInfo.servUUID_len = adv[i]-1;
 312              		.loc 1 99 0
 313 0020 9A1C     		adds	r2, r3, #2
ARM GAS  C:\Users\Austina\AppData\Local\Temp\ccmbhoja.s 			page 26


 314 0022 0244     		add	r2, r2, r0
 315 0024 0A4D     		ldr	r5, .L30
 316 0026 6A60     		str	r2, [r5, #4]
 100:BLETask.c     ****                 break;
 317              		.loc 1 100 0
 318 0028 C25C     		ldrb	r2, [r0, r3]	@ zero_extendqisi2
 319 002a 013A     		subs	r2, r2, #1
 320 002c 2A73     		strb	r2, [r5, #12]
 101:BLETask.c     ****             
 321              		.loc 1 101 0
 322 002e 06E0     		b	.L25
 323              	.L27:
 105:BLETask.c     ****                 currentAdvInfo.name_len = adv[i]-1;
 324              		.loc 1 105 0
 325 0030 9A1C     		adds	r2, r3, #2
 326 0032 0244     		add	r2, r2, r0
 327 0034 064D     		ldr	r5, .L30
 328 0036 2A60     		str	r2, [r5]
 106:BLETask.c     ****             break;
 329              		.loc 1 106 0
 330 0038 C25C     		ldrb	r2, [r0, r3]	@ zero_extendqisi2
 331 003a 013A     		subs	r2, r2, #1
 332 003c AA60     		str	r2, [r5, #8]
 333              	.L25:
 113:BLETask.c     ****     }
 334              		.loc 1 113 0
 335 003e 025D     		ldrb	r2, [r0, r4]	@ zero_extendqisi2
 336 0040 1344     		add	r3, r3, r2
 337              	.LVL30:
 338 0042 DBB2     		uxtb	r3, r3
 339 0044 0133     		adds	r3, r3, #1
 340 0046 DBB2     		uxtb	r3, r3
 341              	.LVL31:
 342              	.L24:
  93:BLETask.c     ****     {
 343              		.loc 1 93 0 discriminator 1
 344 0048 8B42     		cmp	r3, r1
 345 004a E1D3     		bcc	.L28
 346              	.LBE23:
 115:BLETask.c     **** 
 347              		.loc 1 115 0
 348 004c 30BC     		pop	{r4, r5}
 349              		.cfi_restore 5
 350              		.cfi_restore 4
 351              		.cfi_def_cfa_offset 0
 352 004e 7047     		bx	lr
 353              	.L31:
 354              		.align	2
 355              	.L30:
 356 0050 00000000 		.word	currentAdvInfo
 357              		.cfi_endproc
 358              	.LFE532:
 359              		.size	findAdvInfo, .-findAdvInfo
 360              		.section	.text.genericEventHandler,"ax",%progbits
 361              		.align	2
 362              		.global	genericEventHandler
 363              		.thumb
ARM GAS  C:\Users\Austina\AppData\Local\Temp\ccmbhoja.s 			page 27


 364              		.thumb_func
 365              		.type	genericEventHandler, %function
 366              	genericEventHandler:
 367              	.LFB533:
 118:BLETask.c     ****     switch(event)
 368              		.loc 1 118 0
 369              		.cfi_startproc
 370              		@ args = 0, pretend = 0, frame = 8
 371              		@ frame_needed = 0, uses_anonymous_args = 0
 372              	.LVL32:
 373 0000 30B5     		push	{r4, r5, lr}
 374              		.cfi_def_cfa_offset 12
 375              		.cfi_offset 4, -12
 376              		.cfi_offset 5, -8
 377              		.cfi_offset 14, -4
 378 0002 83B0     		sub	sp, sp, #12
 379              		.cfi_def_cfa_offset 24
 119:BLETask.c     ****     {
 380              		.loc 1 119 0
 381 0004 B0F5A04F 		cmp	r0, #20480
 382 0008 00F0A980 		beq	.L34
 383 000c 0C46     		mov	r4, r1
 384 000e 0BD8     		bhi	.L35
 385 0010 B0F5804F 		cmp	r0, #16384
 386 0014 3AD0     		beq	.L36
 387 0016 44F20803 		movw	r3, #16392
 388 001a 9842     		cmp	r0, r3
 389 001c 0ED0     		beq	.L37
 390 001e B0F5805F 		cmp	r0, #4096
 391 0022 40F0A580 		bne	.L32
 392 0026 09E0     		b	.L37
 393              	.L35:
 394 0028 45F20203 		movw	r3, #20482
 395 002c 9842     		cmp	r0, r3
 396 002e 5FD0     		beq	.L38
 397 0030 71D3     		bcc	.L39
 398 0032 504B     		ldr	r3, .L42
 399 0034 9842     		cmp	r0, r3
 400 0036 00F08880 		beq	.L40
 401 003a 99E0     		b	.L32
 402              	.L37:
 403              	.LBB24:
 123:BLETask.c     ****         ble_print("Only once connected to the peripheral the data aquisition will begin.");
 404              		.loc 1 123 0
 405 003c 4E4D     		ldr	r5, .L42+4
 406 003e 2846     		mov	r0, r5
 407              	.LVL33:
 408 0040 FFF7FEFF 		bl	printf
 409              	.LVL34:
 410 0044 4D48     		ldr	r0, .L42+8
 411 0046 FFF7FEFF 		bl	printf
 412              	.LVL35:
 413 004a 4D4C     		ldr	r4, .L42+12
 414              	.LVL36:
 415 004c 2046     		mov	r0, r4
 416 004e FFF7FEFF 		bl	puts
 417              	.LVL37:
ARM GAS  C:\Users\Austina\AppData\Local\Temp\ccmbhoja.s 			page 28


 124:BLETask.c     ****             ble_print("Starting Scan");
 418              		.loc 1 124 0
 419 0052 2846     		mov	r0, r5
 420 0054 FFF7FEFF 		bl	printf
 421              	.LVL38:
 422 0058 4A48     		ldr	r0, .L42+16
 423 005a FFF7FEFF 		bl	printf
 424              	.LVL39:
 425 005e 2046     		mov	r0, r4
 426 0060 FFF7FEFF 		bl	puts
 427              	.LVL40:
 125:BLETask.c     ****             //Start scan operation
 428              		.loc 1 125 0
 429 0064 2846     		mov	r0, r5
 430 0066 FFF7FEFF 		bl	printf
 431              	.LVL41:
 432 006a 4748     		ldr	r0, .L42+20
 433 006c FFF7FEFF 		bl	printf
 434              	.LVL42:
 435 0070 2046     		mov	r0, r4
 436 0072 FFF7FEFF 		bl	puts
 437              	.LVL43:
 127:BLETask.c     ****             //turn off the led
 438              		.loc 1 127 0
 439 0076 0021     		movs	r1, #0
 440 0078 0846     		mov	r0, r1
 441 007a FFF7FEFF 		bl	Cy_BLE_GAPC_StartScan
 442              	.LVL44:
 443              	.LBB25:
 444              	.LBB26:
 445              		.file 3 "Generated_Source\\PSoC6\\pdl\\drivers/peripheral/gpio/cy_gpio.h"
   1:Generated_Source\PSoC6\pdl\drivers/peripheral/gpio/cy_gpio.h **** /***************************************************************************//**
   2:Generated_Source\PSoC6\pdl\drivers/peripheral/gpio/cy_gpio.h **** * \file cy_gpio.h
   3:Generated_Source\PSoC6\pdl\drivers/peripheral/gpio/cy_gpio.h **** * \version 1.20
   4:Generated_Source\PSoC6\pdl\drivers/peripheral/gpio/cy_gpio.h **** *
   5:Generated_Source\PSoC6\pdl\drivers/peripheral/gpio/cy_gpio.h **** * Provides an API declaration of the GPIO driver
   6:Generated_Source\PSoC6\pdl\drivers/peripheral/gpio/cy_gpio.h **** *
   7:Generated_Source\PSoC6\pdl\drivers/peripheral/gpio/cy_gpio.h **** ********************************************************************************
   8:Generated_Source\PSoC6\pdl\drivers/peripheral/gpio/cy_gpio.h **** * \copyright
   9:Generated_Source\PSoC6\pdl\drivers/peripheral/gpio/cy_gpio.h **** * Copyright 2016-2018, Cypress Semiconductor Corporation. All rights reserved.
  10:Generated_Source\PSoC6\pdl\drivers/peripheral/gpio/cy_gpio.h **** * You may use this file only in accordance with the license, terms, conditions,
  11:Generated_Source\PSoC6\pdl\drivers/peripheral/gpio/cy_gpio.h **** * disclaimers, and limitations in the end user license agreement accompanying
  12:Generated_Source\PSoC6\pdl\drivers/peripheral/gpio/cy_gpio.h **** * the software package with which this file was provided.
  13:Generated_Source\PSoC6\pdl\drivers/peripheral/gpio/cy_gpio.h **** *******************************************************************************/
  14:Generated_Source\PSoC6\pdl\drivers/peripheral/gpio/cy_gpio.h **** 
  15:Generated_Source\PSoC6\pdl\drivers/peripheral/gpio/cy_gpio.h **** /**
  16:Generated_Source\PSoC6\pdl\drivers/peripheral/gpio/cy_gpio.h **** * \addtogroup group_gpio
  17:Generated_Source\PSoC6\pdl\drivers/peripheral/gpio/cy_gpio.h **** * \{
  18:Generated_Source\PSoC6\pdl\drivers/peripheral/gpio/cy_gpio.h **** * The GPIO driver provides an API to configure and access device Input/Output pins.
  19:Generated_Source\PSoC6\pdl\drivers/peripheral/gpio/cy_gpio.h **** *
  20:Generated_Source\PSoC6\pdl\drivers/peripheral/gpio/cy_gpio.h **** * The functions and other declarations used in this driver are in cy_gpio.h. 
  21:Generated_Source\PSoC6\pdl\drivers/peripheral/gpio/cy_gpio.h **** * You can include cy_pdl.h (ModusToolbox only) to get access to all functions 
  22:Generated_Source\PSoC6\pdl\drivers/peripheral/gpio/cy_gpio.h **** * and declarations in the PDL.
  23:Generated_Source\PSoC6\pdl\drivers/peripheral/gpio/cy_gpio.h **** *
  24:Generated_Source\PSoC6\pdl\drivers/peripheral/gpio/cy_gpio.h **** * IO pins include all general purpose types such as GPIO, SIO, HSIO, AUXIO, and
  25:Generated_Source\PSoC6\pdl\drivers/peripheral/gpio/cy_gpio.h **** * their variants.
  26:Generated_Source\PSoC6\pdl\drivers/peripheral/gpio/cy_gpio.h **** *
ARM GAS  C:\Users\Austina\AppData\Local\Temp\ccmbhoja.s 			page 29


  27:Generated_Source\PSoC6\pdl\drivers/peripheral/gpio/cy_gpio.h **** * Initialization can be performed either at the port level or by configuring the
  28:Generated_Source\PSoC6\pdl\drivers/peripheral/gpio/cy_gpio.h **** * individual pins. For efficient use of code space, port
  29:Generated_Source\PSoC6\pdl\drivers/peripheral/gpio/cy_gpio.h **** * configuration should be used in the field. Refer to the product device header files 
  30:Generated_Source\PSoC6\pdl\drivers/peripheral/gpio/cy_gpio.h **** * for the list of supported ports and pins.
  31:Generated_Source\PSoC6\pdl\drivers/peripheral/gpio/cy_gpio.h **** * 
  32:Generated_Source\PSoC6\pdl\drivers/peripheral/gpio/cy_gpio.h **** * - Single pin configuration is performed by using \ref Cy_GPIO_Pin_FastInit 
  33:Generated_Source\PSoC6\pdl\drivers/peripheral/gpio/cy_gpio.h **** *   (provide specific values) or \ref Cy_GPIO_Pin_Init (provide a filled
  34:Generated_Source\PSoC6\pdl\drivers/peripheral/gpio/cy_gpio.h **** *   cy_stc_gpio_pin_config_t structure).
  35:Generated_Source\PSoC6\pdl\drivers/peripheral/gpio/cy_gpio.h **** * - An entire port can be configured using \ref Cy_GPIO_Port_Init. Provide a filled 
  36:Generated_Source\PSoC6\pdl\drivers/peripheral/gpio/cy_gpio.h **** *   cy_stc_gpio_prt_config_t structure. The values in the structure are 
  37:Generated_Source\PSoC6\pdl\drivers/peripheral/gpio/cy_gpio.h **** *   bitfields representing the desired value for each pin in the port.
  38:Generated_Source\PSoC6\pdl\drivers/peripheral/gpio/cy_gpio.h **** * - Pin configuration and management is based on the port address and pin number.
  39:Generated_Source\PSoC6\pdl\drivers/peripheral/gpio/cy_gpio.h **** *   \ref Cy_GPIO_PortToAddr function can optionally be used to calculate the port
  40:Generated_Source\PSoC6\pdl\drivers/peripheral/gpio/cy_gpio.h **** *   address from the port number at run-time.
  41:Generated_Source\PSoC6\pdl\drivers/peripheral/gpio/cy_gpio.h **** *
  42:Generated_Source\PSoC6\pdl\drivers/peripheral/gpio/cy_gpio.h **** * Once the pin/port initialization is complete, each pin can be accessed by 
  43:Generated_Source\PSoC6\pdl\drivers/peripheral/gpio/cy_gpio.h **** * specifying the port (GPIO_PRT_Type) and the pin (0-7) in the provided API 
  44:Generated_Source\PSoC6\pdl\drivers/peripheral/gpio/cy_gpio.h **** * functions.
  45:Generated_Source\PSoC6\pdl\drivers/peripheral/gpio/cy_gpio.h **** *
  46:Generated_Source\PSoC6\pdl\drivers/peripheral/gpio/cy_gpio.h **** * \section group_gpio_configuration Configuration Considerations
  47:Generated_Source\PSoC6\pdl\drivers/peripheral/gpio/cy_gpio.h **** *
  48:Generated_Source\PSoC6\pdl\drivers/peripheral/gpio/cy_gpio.h **** * 1. Pin multiplexing is controlled through the High-Speed IO Matrix (HSIOM) selection.
  49:Generated_Source\PSoC6\pdl\drivers/peripheral/gpio/cy_gpio.h **** *    This allows the pin to connect to signal sources/sinks throughout the device,
  50:Generated_Source\PSoC6\pdl\drivers/peripheral/gpio/cy_gpio.h **** *    as defined by the pin HSIOM selection options (en_hsiom_sel_t).
  51:Generated_Source\PSoC6\pdl\drivers/peripheral/gpio/cy_gpio.h **** * 2. All pins are initialized to High-Z drive mode with HSIOM connected to CPU (SW
  52:Generated_Source\PSoC6\pdl\drivers/peripheral/gpio/cy_gpio.h **** *    control digital pin only) at Power-On-Reset(POR).
  53:Generated_Source\PSoC6\pdl\drivers/peripheral/gpio/cy_gpio.h **** * 3. Some API functions perform read-modify-write operations on shared port
  54:Generated_Source\PSoC6\pdl\drivers/peripheral/gpio/cy_gpio.h **** *    registers. These functions are not thread safe and care must be taken when
  55:Generated_Source\PSoC6\pdl\drivers/peripheral/gpio/cy_gpio.h **** *    called by the application.
  56:Generated_Source\PSoC6\pdl\drivers/peripheral/gpio/cy_gpio.h **** * 4. Digital input buffer provides a high-impedance buffer for the external 
  57:Generated_Source\PSoC6\pdl\drivers/peripheral/gpio/cy_gpio.h **** *    digital input. The input buffer is connected to the HSIOM for routing to 
  58:Generated_Source\PSoC6\pdl\drivers/peripheral/gpio/cy_gpio.h **** *    the CPU port registers and selected peripheral. Enabling the input 
  59:Generated_Source\PSoC6\pdl\drivers/peripheral/gpio/cy_gpio.h **** *    buffer provides possibility to read the pin state via the CPU.
  60:Generated_Source\PSoC6\pdl\drivers/peripheral/gpio/cy_gpio.h **** *    If pin is connected to an analog signal, the input buffer should be 
  61:Generated_Source\PSoC6\pdl\drivers/peripheral/gpio/cy_gpio.h **** *    disabled to avoid crowbar currents. For more information refer to device 
  62:Generated_Source\PSoC6\pdl\drivers/peripheral/gpio/cy_gpio.h **** *    TRM and the device datasheet.
  63:Generated_Source\PSoC6\pdl\drivers/peripheral/gpio/cy_gpio.h **** *
  64:Generated_Source\PSoC6\pdl\drivers/peripheral/gpio/cy_gpio.h **** * Multiple pins on a port can be updated using direct port register writes with an
  65:Generated_Source\PSoC6\pdl\drivers/peripheral/gpio/cy_gpio.h **** * appropriate port mask. An example is shown below, highlighting the different ways of 
  66:Generated_Source\PSoC6\pdl\drivers/peripheral/gpio/cy_gpio.h **** * configuring Port 1 pins using:
  67:Generated_Source\PSoC6\pdl\drivers/peripheral/gpio/cy_gpio.h **** * 
  68:Generated_Source\PSoC6\pdl\drivers/peripheral/gpio/cy_gpio.h **** * - Port output data register
  69:Generated_Source\PSoC6\pdl\drivers/peripheral/gpio/cy_gpio.h **** * - Port output data set register
  70:Generated_Source\PSoC6\pdl\drivers/peripheral/gpio/cy_gpio.h **** * - Port output data clear register
  71:Generated_Source\PSoC6\pdl\drivers/peripheral/gpio/cy_gpio.h **** *
  72:Generated_Source\PSoC6\pdl\drivers/peripheral/gpio/cy_gpio.h **** * \snippet gpio/gpio_v1_10_sut_01.cydsn/main_cm4.c Cy_GPIO_Snippet
  73:Generated_Source\PSoC6\pdl\drivers/peripheral/gpio/cy_gpio.h **** *
  74:Generated_Source\PSoC6\pdl\drivers/peripheral/gpio/cy_gpio.h **** * \section group_gpio_more_information More Information
  75:Generated_Source\PSoC6\pdl\drivers/peripheral/gpio/cy_gpio.h **** *
  76:Generated_Source\PSoC6\pdl\drivers/peripheral/gpio/cy_gpio.h **** * Refer to the technical reference manual (TRM) and the device datasheet.
  77:Generated_Source\PSoC6\pdl\drivers/peripheral/gpio/cy_gpio.h **** *
  78:Generated_Source\PSoC6\pdl\drivers/peripheral/gpio/cy_gpio.h **** * \section group_gpio_MISRA MISRA-C Compliance
  79:Generated_Source\PSoC6\pdl\drivers/peripheral/gpio/cy_gpio.h **** * The GPIO driver has the following specific deviations:
  80:Generated_Source\PSoC6\pdl\drivers/peripheral/gpio/cy_gpio.h **** *
  81:Generated_Source\PSoC6\pdl\drivers/peripheral/gpio/cy_gpio.h **** * <table class="doxtable">
  82:Generated_Source\PSoC6\pdl\drivers/peripheral/gpio/cy_gpio.h **** *   <tr>
  83:Generated_Source\PSoC6\pdl\drivers/peripheral/gpio/cy_gpio.h **** *     <th>MISRA Rule</th>
ARM GAS  C:\Users\Austina\AppData\Local\Temp\ccmbhoja.s 			page 30


  84:Generated_Source\PSoC6\pdl\drivers/peripheral/gpio/cy_gpio.h **** *     <th>Rule Class (Required/Advisory)</th>
  85:Generated_Source\PSoC6\pdl\drivers/peripheral/gpio/cy_gpio.h **** *     <th>Rule Description</th>
  86:Generated_Source\PSoC6\pdl\drivers/peripheral/gpio/cy_gpio.h **** *     <th>Description of Deviation(s)</th>
  87:Generated_Source\PSoC6\pdl\drivers/peripheral/gpio/cy_gpio.h **** *   </tr>
  88:Generated_Source\PSoC6\pdl\drivers/peripheral/gpio/cy_gpio.h **** *   <tr>
  89:Generated_Source\PSoC6\pdl\drivers/peripheral/gpio/cy_gpio.h **** *     <td>11.4</td>
  90:Generated_Source\PSoC6\pdl\drivers/peripheral/gpio/cy_gpio.h **** *     <td>A</td>
  91:Generated_Source\PSoC6\pdl\drivers/peripheral/gpio/cy_gpio.h **** *     <td>A cast should not be performed between a pointer to object type and
  92:Generated_Source\PSoC6\pdl\drivers/peripheral/gpio/cy_gpio.h **** *         a different pointer to object type.</td>
  93:Generated_Source\PSoC6\pdl\drivers/peripheral/gpio/cy_gpio.h **** *     <td> This code is safe because the elements of both GPIO_PRT_V1_Type and GPIO_PRT_V2_Type 
  94:Generated_Source\PSoC6\pdl\drivers/peripheral/gpio/cy_gpio.h **** *          types have identical alignment.</td>
  95:Generated_Source\PSoC6\pdl\drivers/peripheral/gpio/cy_gpio.h **** *   </tr>
  96:Generated_Source\PSoC6\pdl\drivers/peripheral/gpio/cy_gpio.h **** *   <tr>
  97:Generated_Source\PSoC6\pdl\drivers/peripheral/gpio/cy_gpio.h **** *     <td>16.7</td>
  98:Generated_Source\PSoC6\pdl\drivers/peripheral/gpio/cy_gpio.h **** *     <td>A</td>
  99:Generated_Source\PSoC6\pdl\drivers/peripheral/gpio/cy_gpio.h **** *     <td>A pointer parameter in a function prototype should be declared as pointer 
 100:Generated_Source\PSoC6\pdl\drivers/peripheral/gpio/cy_gpio.h **** *         to const if the pointer is not used to modify the addressed object.</td>
 101:Generated_Source\PSoC6\pdl\drivers/peripheral/gpio/cy_gpio.h **** *     <td>The objects pointed to by the base addresses of the GPIO port are not always modified.
 102:Generated_Source\PSoC6\pdl\drivers/peripheral/gpio/cy_gpio.h **** *         While a const qualifier can be used in select scenarios, it brings little benefit
 103:Generated_Source\PSoC6\pdl\drivers/peripheral/gpio/cy_gpio.h **** *         in adding this to the affected functions. </td>
 104:Generated_Source\PSoC6\pdl\drivers/peripheral/gpio/cy_gpio.h **** *   </tr>
 105:Generated_Source\PSoC6\pdl\drivers/peripheral/gpio/cy_gpio.h **** * </table>
 106:Generated_Source\PSoC6\pdl\drivers/peripheral/gpio/cy_gpio.h **** *
 107:Generated_Source\PSoC6\pdl\drivers/peripheral/gpio/cy_gpio.h **** * \section group_gpio_changelog Changelog
 108:Generated_Source\PSoC6\pdl\drivers/peripheral/gpio/cy_gpio.h **** * <table class="doxtable">
 109:Generated_Source\PSoC6\pdl\drivers/peripheral/gpio/cy_gpio.h **** *   <tr><th>Version</th><th>Changes</th><th>Reason for Change</th></tr>
 110:Generated_Source\PSoC6\pdl\drivers/peripheral/gpio/cy_gpio.h **** *   <tr>
 111:Generated_Source\PSoC6\pdl\drivers/peripheral/gpio/cy_gpio.h **** *     <td rowspan="3">1.20</td>
 112:Generated_Source\PSoC6\pdl\drivers/peripheral/gpio/cy_gpio.h **** *     <td>Flattened the organization of the driver source code into the single source directory and
 113:Generated_Source\PSoC6\pdl\drivers/peripheral/gpio/cy_gpio.h **** *     <td>Driver library directory-structure simplification.</td>
 114:Generated_Source\PSoC6\pdl\drivers/peripheral/gpio/cy_gpio.h **** *   </tr>
 115:Generated_Source\PSoC6\pdl\drivers/peripheral/gpio/cy_gpio.h **** *   <tr>
 116:Generated_Source\PSoC6\pdl\drivers/peripheral/gpio/cy_gpio.h **** *     <td>Added the functions for configuring the AMux bus splitter switch cells:
 117:Generated_Source\PSoC6\pdl\drivers/peripheral/gpio/cy_gpio.h **** *     - \ref Cy_GPIO_SetAmuxSplit
 118:Generated_Source\PSoC6\pdl\drivers/peripheral/gpio/cy_gpio.h **** *     - \ref Cy_GPIO_GetAmuxSplit
 119:Generated_Source\PSoC6\pdl\drivers/peripheral/gpio/cy_gpio.h **** *     </td>
 120:Generated_Source\PSoC6\pdl\drivers/peripheral/gpio/cy_gpio.h **** *     <td>Added a new functionality related to AMux bus.</td>
 121:Generated_Source\PSoC6\pdl\drivers/peripheral/gpio/cy_gpio.h **** *   </tr>
 122:Generated_Source\PSoC6\pdl\drivers/peripheral/gpio/cy_gpio.h **** *   <tr>
 123:Generated_Source\PSoC6\pdl\drivers/peripheral/gpio/cy_gpio.h **** *     <td>Added register access layer. Use register access macros instead
 124:Generated_Source\PSoC6\pdl\drivers/peripheral/gpio/cy_gpio.h **** *         of direct register access using dereferenced pointers.</td>
 125:Generated_Source\PSoC6\pdl\drivers/peripheral/gpio/cy_gpio.h **** *     <td>Makes register access device-independent, so that the PDL does 
 126:Generated_Source\PSoC6\pdl\drivers/peripheral/gpio/cy_gpio.h **** *         not need to be recompiled for each supported part number.</td>
 127:Generated_Source\PSoC6\pdl\drivers/peripheral/gpio/cy_gpio.h **** *   </tr>
 128:Generated_Source\PSoC6\pdl\drivers/peripheral/gpio/cy_gpio.h **** *   <tr>
 129:Generated_Source\PSoC6\pdl\drivers/peripheral/gpio/cy_gpio.h **** *     <td>1.10.1</td>
 130:Generated_Source\PSoC6\pdl\drivers/peripheral/gpio/cy_gpio.h **** *     <td>Updated description for the functions: \ref Cy_GPIO_GetInterruptStatus, 
 131:Generated_Source\PSoC6\pdl\drivers/peripheral/gpio/cy_gpio.h **** *         \ref Cy_GPIO_GetInterruptMask, \ref Cy_GPIO_GetInterruptStatusMasked.
 132:Generated_Source\PSoC6\pdl\drivers/peripheral/gpio/cy_gpio.h **** *
 133:Generated_Source\PSoC6\pdl\drivers/peripheral/gpio/cy_gpio.h **** *         Minor documentation edits.
 134:Generated_Source\PSoC6\pdl\drivers/peripheral/gpio/cy_gpio.h **** *     </td>
 135:Generated_Source\PSoC6\pdl\drivers/peripheral/gpio/cy_gpio.h **** *     <td>Documentation update and clarification</td>
 136:Generated_Source\PSoC6\pdl\drivers/peripheral/gpio/cy_gpio.h **** *   </tr>
 137:Generated_Source\PSoC6\pdl\drivers/peripheral/gpio/cy_gpio.h **** *   <tr>
 138:Generated_Source\PSoC6\pdl\drivers/peripheral/gpio/cy_gpio.h **** *     <td>1.10</td>
 139:Generated_Source\PSoC6\pdl\drivers/peripheral/gpio/cy_gpio.h **** *     <td>Added input parameter validation to the API functions</td>
 140:Generated_Source\PSoC6\pdl\drivers/peripheral/gpio/cy_gpio.h **** *     <td></td>
ARM GAS  C:\Users\Austina\AppData\Local\Temp\ccmbhoja.s 			page 31


 141:Generated_Source\PSoC6\pdl\drivers/peripheral/gpio/cy_gpio.h **** *   </tr>
 142:Generated_Source\PSoC6\pdl\drivers/peripheral/gpio/cy_gpio.h **** *   <tr>
 143:Generated_Source\PSoC6\pdl\drivers/peripheral/gpio/cy_gpio.h **** *     <td>1.0</td>
 144:Generated_Source\PSoC6\pdl\drivers/peripheral/gpio/cy_gpio.h **** *     <td>Initial version</td>
 145:Generated_Source\PSoC6\pdl\drivers/peripheral/gpio/cy_gpio.h **** *     <td></td>
 146:Generated_Source\PSoC6\pdl\drivers/peripheral/gpio/cy_gpio.h **** *   </tr>
 147:Generated_Source\PSoC6\pdl\drivers/peripheral/gpio/cy_gpio.h **** * </table>
 148:Generated_Source\PSoC6\pdl\drivers/peripheral/gpio/cy_gpio.h **** *
 149:Generated_Source\PSoC6\pdl\drivers/peripheral/gpio/cy_gpio.h **** * \defgroup group_gpio_macros Macros
 150:Generated_Source\PSoC6\pdl\drivers/peripheral/gpio/cy_gpio.h **** * \defgroup group_gpio_functions Functions
 151:Generated_Source\PSoC6\pdl\drivers/peripheral/gpio/cy_gpio.h **** * \{
 152:Generated_Source\PSoC6\pdl\drivers/peripheral/gpio/cy_gpio.h **** *   \defgroup group_gpio_functions_init       Initialization Functions
 153:Generated_Source\PSoC6\pdl\drivers/peripheral/gpio/cy_gpio.h **** *   \defgroup group_gpio_functions_gpio       GPIO Functions
 154:Generated_Source\PSoC6\pdl\drivers/peripheral/gpio/cy_gpio.h **** *   \defgroup group_gpio_functions_sio        SIO Functions
 155:Generated_Source\PSoC6\pdl\drivers/peripheral/gpio/cy_gpio.h **** *   \defgroup group_gpio_functions_interrupt  Port Interrupt Functions
 156:Generated_Source\PSoC6\pdl\drivers/peripheral/gpio/cy_gpio.h **** * \}
 157:Generated_Source\PSoC6\pdl\drivers/peripheral/gpio/cy_gpio.h **** * \defgroup group_gpio_data_structures Data Structures
 158:Generated_Source\PSoC6\pdl\drivers/peripheral/gpio/cy_gpio.h **** * \defgroup group_gpio_enums Enumerated Types
 159:Generated_Source\PSoC6\pdl\drivers/peripheral/gpio/cy_gpio.h **** */
 160:Generated_Source\PSoC6\pdl\drivers/peripheral/gpio/cy_gpio.h **** 
 161:Generated_Source\PSoC6\pdl\drivers/peripheral/gpio/cy_gpio.h **** #if !defined(CY_GPIO_H)
 162:Generated_Source\PSoC6\pdl\drivers/peripheral/gpio/cy_gpio.h **** #define CY_GPIO_H
 163:Generated_Source\PSoC6\pdl\drivers/peripheral/gpio/cy_gpio.h **** 
 164:Generated_Source\PSoC6\pdl\drivers/peripheral/gpio/cy_gpio.h **** #include <stddef.h>
 165:Generated_Source\PSoC6\pdl\drivers/peripheral/gpio/cy_gpio.h **** #include "cy_device.h"
 166:Generated_Source\PSoC6\pdl\drivers/peripheral/gpio/cy_gpio.h **** #include "cy_device_headers.h"
 167:Generated_Source\PSoC6\pdl\drivers/peripheral/gpio/cy_gpio.h **** #include "cy_syslib.h"
 168:Generated_Source\PSoC6\pdl\drivers/peripheral/gpio/cy_gpio.h **** 
 169:Generated_Source\PSoC6\pdl\drivers/peripheral/gpio/cy_gpio.h **** #if defined(__cplusplus)
 170:Generated_Source\PSoC6\pdl\drivers/peripheral/gpio/cy_gpio.h **** extern "C" {
 171:Generated_Source\PSoC6\pdl\drivers/peripheral/gpio/cy_gpio.h **** #endif
 172:Generated_Source\PSoC6\pdl\drivers/peripheral/gpio/cy_gpio.h **** 
 173:Generated_Source\PSoC6\pdl\drivers/peripheral/gpio/cy_gpio.h **** /** \addtogroup group_gpio_macros
 174:Generated_Source\PSoC6\pdl\drivers/peripheral/gpio/cy_gpio.h **** * \{
 175:Generated_Source\PSoC6\pdl\drivers/peripheral/gpio/cy_gpio.h **** */
 176:Generated_Source\PSoC6\pdl\drivers/peripheral/gpio/cy_gpio.h **** 
 177:Generated_Source\PSoC6\pdl\drivers/peripheral/gpio/cy_gpio.h **** /** Driver major version */
 178:Generated_Source\PSoC6\pdl\drivers/peripheral/gpio/cy_gpio.h **** #define CY_GPIO_DRV_VERSION_MAJOR       1
 179:Generated_Source\PSoC6\pdl\drivers/peripheral/gpio/cy_gpio.h **** 
 180:Generated_Source\PSoC6\pdl\drivers/peripheral/gpio/cy_gpio.h **** /** Driver minor version */
 181:Generated_Source\PSoC6\pdl\drivers/peripheral/gpio/cy_gpio.h **** #define CY_GPIO_DRV_VERSION_MINOR       20
 182:Generated_Source\PSoC6\pdl\drivers/peripheral/gpio/cy_gpio.h **** 
 183:Generated_Source\PSoC6\pdl\drivers/peripheral/gpio/cy_gpio.h **** /** GPIO driver ID */
 184:Generated_Source\PSoC6\pdl\drivers/peripheral/gpio/cy_gpio.h **** #define CY_GPIO_ID CY_PDL_DRV_ID(0x16U)
 185:Generated_Source\PSoC6\pdl\drivers/peripheral/gpio/cy_gpio.h **** 
 186:Generated_Source\PSoC6\pdl\drivers/peripheral/gpio/cy_gpio.h **** /** \} group_gpio_macros */
 187:Generated_Source\PSoC6\pdl\drivers/peripheral/gpio/cy_gpio.h **** 
 188:Generated_Source\PSoC6\pdl\drivers/peripheral/gpio/cy_gpio.h **** 
 189:Generated_Source\PSoC6\pdl\drivers/peripheral/gpio/cy_gpio.h **** /***************************************
 190:Generated_Source\PSoC6\pdl\drivers/peripheral/gpio/cy_gpio.h **** *       Enumerations
 191:Generated_Source\PSoC6\pdl\drivers/peripheral/gpio/cy_gpio.h **** ***************************************/
 192:Generated_Source\PSoC6\pdl\drivers/peripheral/gpio/cy_gpio.h **** /**
 193:Generated_Source\PSoC6\pdl\drivers/peripheral/gpio/cy_gpio.h **** * \addtogroup group_gpio_enums
 194:Generated_Source\PSoC6\pdl\drivers/peripheral/gpio/cy_gpio.h **** * \{
 195:Generated_Source\PSoC6\pdl\drivers/peripheral/gpio/cy_gpio.h **** */
 196:Generated_Source\PSoC6\pdl\drivers/peripheral/gpio/cy_gpio.h **** 
 197:Generated_Source\PSoC6\pdl\drivers/peripheral/gpio/cy_gpio.h **** /** GPIO Driver error codes */
ARM GAS  C:\Users\Austina\AppData\Local\Temp\ccmbhoja.s 			page 32


 198:Generated_Source\PSoC6\pdl\drivers/peripheral/gpio/cy_gpio.h **** typedef enum 
 199:Generated_Source\PSoC6\pdl\drivers/peripheral/gpio/cy_gpio.h **** {
 200:Generated_Source\PSoC6\pdl\drivers/peripheral/gpio/cy_gpio.h ****     CY_GPIO_SUCCESS   = 0x00U,                                    /**< Returned successful */
 201:Generated_Source\PSoC6\pdl\drivers/peripheral/gpio/cy_gpio.h ****     CY_GPIO_BAD_PARAM = CY_GPIO_ID | CY_PDL_STATUS_ERROR | 0x01U, /**< Bad parameter was passed */
 202:Generated_Source\PSoC6\pdl\drivers/peripheral/gpio/cy_gpio.h **** } cy_en_gpio_status_t;
 203:Generated_Source\PSoC6\pdl\drivers/peripheral/gpio/cy_gpio.h **** 
 204:Generated_Source\PSoC6\pdl\drivers/peripheral/gpio/cy_gpio.h **** /** AMux switch open/close config */
 205:Generated_Source\PSoC6\pdl\drivers/peripheral/gpio/cy_gpio.h **** typedef enum
 206:Generated_Source\PSoC6\pdl\drivers/peripheral/gpio/cy_gpio.h **** {
 207:Generated_Source\PSoC6\pdl\drivers/peripheral/gpio/cy_gpio.h ****     CY_GPIO_AMUX_OPENALL,   /**< Open ground switch. Open right switch. Open left switch */
 208:Generated_Source\PSoC6\pdl\drivers/peripheral/gpio/cy_gpio.h ****     CY_GPIO_AMUX_L,         /**< Open ground switch. Open right switch. Close left switch */
 209:Generated_Source\PSoC6\pdl\drivers/peripheral/gpio/cy_gpio.h ****     CY_GPIO_AMUX_R,         /**< Open ground switch. Close right switch. Open left switch */
 210:Generated_Source\PSoC6\pdl\drivers/peripheral/gpio/cy_gpio.h ****     CY_GPIO_AMUX_LR,        /**< Open ground switch. Close right switch. Close left switch */
 211:Generated_Source\PSoC6\pdl\drivers/peripheral/gpio/cy_gpio.h ****     CY_GPIO_AMUX_G,         /**< Close ground switch. Open right switch. Open left switch */
 212:Generated_Source\PSoC6\pdl\drivers/peripheral/gpio/cy_gpio.h ****     CY_GPIO_AMUX_GL,        /**< Close ground switch. Open right switch. Close left switch */
 213:Generated_Source\PSoC6\pdl\drivers/peripheral/gpio/cy_gpio.h ****     CY_GPIO_AMUX_GR,        /**< Close ground switch. Close right switch. Open left switch */
 214:Generated_Source\PSoC6\pdl\drivers/peripheral/gpio/cy_gpio.h ****     CY_GPIO_AMUX_GLR,       /**< Close ground switch. Close right switch. Close left switch */
 215:Generated_Source\PSoC6\pdl\drivers/peripheral/gpio/cy_gpio.h **** }cy_en_gpio_amuxconnect_t;
 216:Generated_Source\PSoC6\pdl\drivers/peripheral/gpio/cy_gpio.h **** 
 217:Generated_Source\PSoC6\pdl\drivers/peripheral/gpio/cy_gpio.h **** /**
 218:Generated_Source\PSoC6\pdl\drivers/peripheral/gpio/cy_gpio.h **** * AMux Bus selection
 219:Generated_Source\PSoC6\pdl\drivers/peripheral/gpio/cy_gpio.h **** */
 220:Generated_Source\PSoC6\pdl\drivers/peripheral/gpio/cy_gpio.h **** typedef enum
 221:Generated_Source\PSoC6\pdl\drivers/peripheral/gpio/cy_gpio.h **** {
 222:Generated_Source\PSoC6\pdl\drivers/peripheral/gpio/cy_gpio.h ****     CY_GPIO_AMUXBUSA,       /**< AMuxBus A */
 223:Generated_Source\PSoC6\pdl\drivers/peripheral/gpio/cy_gpio.h ****     CY_GPIO_AMUXBUSB        /**< AMuxBus B */
 224:Generated_Source\PSoC6\pdl\drivers/peripheral/gpio/cy_gpio.h **** }cy_en_gpio_amuxselect_t;
 225:Generated_Source\PSoC6\pdl\drivers/peripheral/gpio/cy_gpio.h **** 
 226:Generated_Source\PSoC6\pdl\drivers/peripheral/gpio/cy_gpio.h **** /** \} group_gpio_enums */
 227:Generated_Source\PSoC6\pdl\drivers/peripheral/gpio/cy_gpio.h **** 
 228:Generated_Source\PSoC6\pdl\drivers/peripheral/gpio/cy_gpio.h **** 
 229:Generated_Source\PSoC6\pdl\drivers/peripheral/gpio/cy_gpio.h **** /***************************************
 230:Generated_Source\PSoC6\pdl\drivers/peripheral/gpio/cy_gpio.h **** *       Configuration Structures
 231:Generated_Source\PSoC6\pdl\drivers/peripheral/gpio/cy_gpio.h **** ***************************************/
 232:Generated_Source\PSoC6\pdl\drivers/peripheral/gpio/cy_gpio.h **** 
 233:Generated_Source\PSoC6\pdl\drivers/peripheral/gpio/cy_gpio.h **** /**
 234:Generated_Source\PSoC6\pdl\drivers/peripheral/gpio/cy_gpio.h **** * \addtogroup group_gpio_data_structures
 235:Generated_Source\PSoC6\pdl\drivers/peripheral/gpio/cy_gpio.h **** * \{
 236:Generated_Source\PSoC6\pdl\drivers/peripheral/gpio/cy_gpio.h **** */
 237:Generated_Source\PSoC6\pdl\drivers/peripheral/gpio/cy_gpio.h **** 
 238:Generated_Source\PSoC6\pdl\drivers/peripheral/gpio/cy_gpio.h **** /** This structure is used to initialize a port of GPIO pins */
 239:Generated_Source\PSoC6\pdl\drivers/peripheral/gpio/cy_gpio.h **** typedef struct 
 240:Generated_Source\PSoC6\pdl\drivers/peripheral/gpio/cy_gpio.h **** {
 241:Generated_Source\PSoC6\pdl\drivers/peripheral/gpio/cy_gpio.h ****     uint32_t out;           /**< Initial output data for the IO pins in the port */
 242:Generated_Source\PSoC6\pdl\drivers/peripheral/gpio/cy_gpio.h ****     uint32_t intrMask;      /**< Interrupt enable mask for the port interrupt */
 243:Generated_Source\PSoC6\pdl\drivers/peripheral/gpio/cy_gpio.h ****     uint32_t intrCfg;       /**< Port pin interrupt edge detection configuration */
 244:Generated_Source\PSoC6\pdl\drivers/peripheral/gpio/cy_gpio.h ****     uint32_t cfg;           /**< Port pin drive modes and input buffer enable configuration */
 245:Generated_Source\PSoC6\pdl\drivers/peripheral/gpio/cy_gpio.h ****     uint32_t cfgIn;         /**< Port pin input buffer configuration */
 246:Generated_Source\PSoC6\pdl\drivers/peripheral/gpio/cy_gpio.h ****     uint32_t cfgOut;        /**< Port pin output buffer configuration */
 247:Generated_Source\PSoC6\pdl\drivers/peripheral/gpio/cy_gpio.h ****     uint32_t cfgSIO;        /**< Port SIO pins configuration */
 248:Generated_Source\PSoC6\pdl\drivers/peripheral/gpio/cy_gpio.h ****     uint32_t sel0Active;    /**< HSIOM selection for port pins 0,1,2,3 */
 249:Generated_Source\PSoC6\pdl\drivers/peripheral/gpio/cy_gpio.h ****     uint32_t sel1Active;    /**< HSIOM selection for port pins 4,5,6,7 */
 250:Generated_Source\PSoC6\pdl\drivers/peripheral/gpio/cy_gpio.h **** } cy_stc_gpio_prt_config_t;
 251:Generated_Source\PSoC6\pdl\drivers/peripheral/gpio/cy_gpio.h **** 
 252:Generated_Source\PSoC6\pdl\drivers/peripheral/gpio/cy_gpio.h **** /** This structure is used to initialize a single GPIO pin */
 253:Generated_Source\PSoC6\pdl\drivers/peripheral/gpio/cy_gpio.h **** typedef struct
 254:Generated_Source\PSoC6\pdl\drivers/peripheral/gpio/cy_gpio.h **** {
ARM GAS  C:\Users\Austina\AppData\Local\Temp\ccmbhoja.s 			page 33


 255:Generated_Source\PSoC6\pdl\drivers/peripheral/gpio/cy_gpio.h ****     uint32_t outVal;         /**< Pin output state */
 256:Generated_Source\PSoC6\pdl\drivers/peripheral/gpio/cy_gpio.h ****     uint32_t driveMode;      /**< Drive mode */
 257:Generated_Source\PSoC6\pdl\drivers/peripheral/gpio/cy_gpio.h ****     en_hsiom_sel_t hsiom;    /**< HSIOM selection */
 258:Generated_Source\PSoC6\pdl\drivers/peripheral/gpio/cy_gpio.h ****     uint32_t intEdge;        /**< Interrupt Edge type */
 259:Generated_Source\PSoC6\pdl\drivers/peripheral/gpio/cy_gpio.h ****     uint32_t intMask;        /**< Interrupt enable mask */
 260:Generated_Source\PSoC6\pdl\drivers/peripheral/gpio/cy_gpio.h ****     uint32_t vtrip;          /**< Input buffer voltage trip type */
 261:Generated_Source\PSoC6\pdl\drivers/peripheral/gpio/cy_gpio.h ****     uint32_t slewRate;       /**< Output buffer slew rate */
 262:Generated_Source\PSoC6\pdl\drivers/peripheral/gpio/cy_gpio.h ****     uint32_t driveSel;       /**< Drive strength */
 263:Generated_Source\PSoC6\pdl\drivers/peripheral/gpio/cy_gpio.h ****     uint32_t vregEn;         /**< SIO pair output buffer mode */
 264:Generated_Source\PSoC6\pdl\drivers/peripheral/gpio/cy_gpio.h ****     uint32_t ibufMode;       /**< SIO pair input buffer mode */
 265:Generated_Source\PSoC6\pdl\drivers/peripheral/gpio/cy_gpio.h ****     uint32_t vtripSel;       /**< SIO pair input buffer trip point */
 266:Generated_Source\PSoC6\pdl\drivers/peripheral/gpio/cy_gpio.h ****     uint32_t vrefSel;        /**< SIO pair reference voltage for input buffer trip point */
 267:Generated_Source\PSoC6\pdl\drivers/peripheral/gpio/cy_gpio.h ****     uint32_t vohSel;         /**< SIO pair regulated voltage output level */
 268:Generated_Source\PSoC6\pdl\drivers/peripheral/gpio/cy_gpio.h **** } cy_stc_gpio_pin_config_t;
 269:Generated_Source\PSoC6\pdl\drivers/peripheral/gpio/cy_gpio.h **** 
 270:Generated_Source\PSoC6\pdl\drivers/peripheral/gpio/cy_gpio.h **** /** \} group_gpio_data_structures */
 271:Generated_Source\PSoC6\pdl\drivers/peripheral/gpio/cy_gpio.h **** 
 272:Generated_Source\PSoC6\pdl\drivers/peripheral/gpio/cy_gpio.h **** /***************************************
 273:Generated_Source\PSoC6\pdl\drivers/peripheral/gpio/cy_gpio.h **** *        Constants
 274:Generated_Source\PSoC6\pdl\drivers/peripheral/gpio/cy_gpio.h **** ***************************************/
 275:Generated_Source\PSoC6\pdl\drivers/peripheral/gpio/cy_gpio.h **** 
 276:Generated_Source\PSoC6\pdl\drivers/peripheral/gpio/cy_gpio.h **** /** \cond INTERNAL */
 277:Generated_Source\PSoC6\pdl\drivers/peripheral/gpio/cy_gpio.h **** 
 278:Generated_Source\PSoC6\pdl\drivers/peripheral/gpio/cy_gpio.h **** /* General Constants */
 279:Generated_Source\PSoC6\pdl\drivers/peripheral/gpio/cy_gpio.h **** #define CY_GPIO_PRT_HALF                       (4UL)      /**< Half-way point of a GPIO port */
 280:Generated_Source\PSoC6\pdl\drivers/peripheral/gpio/cy_gpio.h **** #define CY_GPIO_PRT_DEINIT                     (0UL)      /**< De-init value for port registers */
 281:Generated_Source\PSoC6\pdl\drivers/peripheral/gpio/cy_gpio.h **** 
 282:Generated_Source\PSoC6\pdl\drivers/peripheral/gpio/cy_gpio.h **** /* GPIO Masks */
 283:Generated_Source\PSoC6\pdl\drivers/peripheral/gpio/cy_gpio.h **** #define CY_GPIO_HSIOM_MASK                     (0x1FUL)   /**< HSIOM selection mask */
 284:Generated_Source\PSoC6\pdl\drivers/peripheral/gpio/cy_gpio.h **** #define CY_GPIO_OUT_MASK                       (0x01UL)   /**< Single pin mask for OUT register */
 285:Generated_Source\PSoC6\pdl\drivers/peripheral/gpio/cy_gpio.h **** #define CY_GPIO_IN_MASK                        (0x01UL)   /**< Single pin mask for IN register */
 286:Generated_Source\PSoC6\pdl\drivers/peripheral/gpio/cy_gpio.h **** #define CY_GPIO_CFG_DM_MASK                    (0x0FUL)   /**< Single pin mask for drive mode in CF
 287:Generated_Source\PSoC6\pdl\drivers/peripheral/gpio/cy_gpio.h **** #define CY_GPIO_CFG_IN_VTRIP_SEL_MASK          (0x01UL)   /**< Single pin mask for VTRIP selection 
 288:Generated_Source\PSoC6\pdl\drivers/peripheral/gpio/cy_gpio.h **** #define CY_GPIO_CFG_OUT_SLOW_MASK              (0x01UL)   /**< Single pin mask for slew rate in CFG
 289:Generated_Source\PSoC6\pdl\drivers/peripheral/gpio/cy_gpio.h **** #define CY_GPIO_CFG_OUT_DRIVE_SEL_MASK         (0x03UL)   /**< Single pin mask for drive strength i
 290:Generated_Source\PSoC6\pdl\drivers/peripheral/gpio/cy_gpio.h **** #define CY_GPIO_INTR_STATUS_MASK               (0x01UL)   /**< Single pin mask for interrupt status
 291:Generated_Source\PSoC6\pdl\drivers/peripheral/gpio/cy_gpio.h **** #define CY_GPIO_INTR_EN_MASK                   (0x01UL)   /**< Single pin mask for interrupt status
 292:Generated_Source\PSoC6\pdl\drivers/peripheral/gpio/cy_gpio.h **** #define CY_GPIO_INTR_MASKED_MASK               (0x01UL)   /**< Single pin mask for masked interrupt
 293:Generated_Source\PSoC6\pdl\drivers/peripheral/gpio/cy_gpio.h **** #define CY_GPIO_INTR_SET_MASK                  (0x01UL)   /**< Single pin mask for setting the inte
 294:Generated_Source\PSoC6\pdl\drivers/peripheral/gpio/cy_gpio.h **** #define CY_GPIO_INTR_EDGE_MASK                 (0x03UL)   /**< Single pin mask for interrupt edge t
 295:Generated_Source\PSoC6\pdl\drivers/peripheral/gpio/cy_gpio.h **** #define CY_GPIO_INTR_FLT_EDGE_MASK             (0x07UL)   /**< Single pin mask for setting filtered
 296:Generated_Source\PSoC6\pdl\drivers/peripheral/gpio/cy_gpio.h **** 
 297:Generated_Source\PSoC6\pdl\drivers/peripheral/gpio/cy_gpio.h **** /* SIO Masks */
 298:Generated_Source\PSoC6\pdl\drivers/peripheral/gpio/cy_gpio.h **** #define CY_GPIO_VREG_EN_MASK                   (0x01UL)   /**< Single SIO pin mask for voltage regu
 299:Generated_Source\PSoC6\pdl\drivers/peripheral/gpio/cy_gpio.h **** #define CY_GPIO_IBUF_MASK                      (0x01UL)   /**< Single SIO pin mask for input buffer
 300:Generated_Source\PSoC6\pdl\drivers/peripheral/gpio/cy_gpio.h **** #define CY_GPIO_IBUF_SHIFT                     (0x01UL)   /**< Single SIO pin shift for input buffe
 301:Generated_Source\PSoC6\pdl\drivers/peripheral/gpio/cy_gpio.h **** #define CY_GPIO_VTRIP_SEL_MASK                 (0x01UL)   /**< Single SIO pin mask for the input bu
 302:Generated_Source\PSoC6\pdl\drivers/peripheral/gpio/cy_gpio.h **** #define CY_GPIO_VTRIP_SEL_SHIFT                (0x02UL)   /**< Single SIO pin shift for the input b
 303:Generated_Source\PSoC6\pdl\drivers/peripheral/gpio/cy_gpio.h **** #define CY_GPIO_VREF_SEL_MASK                  (0x03UL)   /**< Single SIO pin mask for voltage refe
 304:Generated_Source\PSoC6\pdl\drivers/peripheral/gpio/cy_gpio.h **** #define CY_GPIO_VREF_SEL_SHIFT                 (0x03UL)   /**< Single SIO pin shift for voltage ref
 305:Generated_Source\PSoC6\pdl\drivers/peripheral/gpio/cy_gpio.h **** #define CY_GPIO_VOH_SEL_MASK                   (0x07UL)   /**< Single SIO pin mask for VOH */
 306:Generated_Source\PSoC6\pdl\drivers/peripheral/gpio/cy_gpio.h **** #define CY_GPIO_VOH_SEL_SHIFT                  (0x05UL)   /**< Single SIO pin shift for VOH */
 307:Generated_Source\PSoC6\pdl\drivers/peripheral/gpio/cy_gpio.h **** 
 308:Generated_Source\PSoC6\pdl\drivers/peripheral/gpio/cy_gpio.h **** /* Special mask for SIO pin pair setting */
 309:Generated_Source\PSoC6\pdl\drivers/peripheral/gpio/cy_gpio.h **** #define CY_GPIO_SIO_ODD_PIN_MASK               (0x00FEUL) /**< SIO pin pair selection mask */
 310:Generated_Source\PSoC6\pdl\drivers/peripheral/gpio/cy_gpio.h **** #define CY_GPIO_SIO_PIN_MASK                   (0x00FFUL) /**< SIO pin pair mask */
 311:Generated_Source\PSoC6\pdl\drivers/peripheral/gpio/cy_gpio.h **** 
ARM GAS  C:\Users\Austina\AppData\Local\Temp\ccmbhoja.s 			page 34


 312:Generated_Source\PSoC6\pdl\drivers/peripheral/gpio/cy_gpio.h **** /* Offsets */
 313:Generated_Source\PSoC6\pdl\drivers/peripheral/gpio/cy_gpio.h **** #define CY_GPIO_HSIOM_OFFSET                   (3UL)      /**< Offset for HSIOM */
 314:Generated_Source\PSoC6\pdl\drivers/peripheral/gpio/cy_gpio.h **** #define CY_GPIO_DRIVE_MODE_OFFSET              (2UL)      /**< Offset for Drive mode */
 315:Generated_Source\PSoC6\pdl\drivers/peripheral/gpio/cy_gpio.h **** #define CY_GPIO_INBUF_OFFSET                   (3UL)      /**< Offset for input buffer */
 316:Generated_Source\PSoC6\pdl\drivers/peripheral/gpio/cy_gpio.h **** #define CY_GPIO_CFG_OUT_DRIVE_OFFSET           (16UL)     /**< Offset for drive strength */
 317:Generated_Source\PSoC6\pdl\drivers/peripheral/gpio/cy_gpio.h **** #define CY_GPIO_INTR_CFG_OFFSET                (1UL)      /**< Offset for interrupt config */
 318:Generated_Source\PSoC6\pdl\drivers/peripheral/gpio/cy_gpio.h **** #define CY_GPIO_INTR_FILT_OFFSET               (18UL)     /**< Offset for filtered interrupt config
 319:Generated_Source\PSoC6\pdl\drivers/peripheral/gpio/cy_gpio.h **** #define CY_GPIO_CFG_SIO_OFFSET                 (2UL)      /**< Offset for SIO config */
 320:Generated_Source\PSoC6\pdl\drivers/peripheral/gpio/cy_gpio.h **** 
 321:Generated_Source\PSoC6\pdl\drivers/peripheral/gpio/cy_gpio.h **** /* Parameter validation constants */
 322:Generated_Source\PSoC6\pdl\drivers/peripheral/gpio/cy_gpio.h **** #define CY_GPIO_PINS_MAX                       (8UL)      /**< Number of pins in the port */
 323:Generated_Source\PSoC6\pdl\drivers/peripheral/gpio/cy_gpio.h **** #define CY_GPIO_PRT_PINS_MASK                  (0x0000000FFUL)
 324:Generated_Source\PSoC6\pdl\drivers/peripheral/gpio/cy_gpio.h **** #define CY_GPIO_PRT_INTR_CFG_EDGE_SEL_MASK     (GPIO_PRT_INTR_CFG_EDGE0_SEL_Msk | \
 325:Generated_Source\PSoC6\pdl\drivers/peripheral/gpio/cy_gpio.h ****                                                 GPIO_PRT_INTR_CFG_EDGE1_SEL_Msk | \
 326:Generated_Source\PSoC6\pdl\drivers/peripheral/gpio/cy_gpio.h ****                                                 GPIO_PRT_INTR_CFG_EDGE2_SEL_Msk | \
 327:Generated_Source\PSoC6\pdl\drivers/peripheral/gpio/cy_gpio.h ****                                                 GPIO_PRT_INTR_CFG_EDGE3_SEL_Msk | \
 328:Generated_Source\PSoC6\pdl\drivers/peripheral/gpio/cy_gpio.h ****                                                 GPIO_PRT_INTR_CFG_EDGE4_SEL_Msk | \
 329:Generated_Source\PSoC6\pdl\drivers/peripheral/gpio/cy_gpio.h ****                                                 GPIO_PRT_INTR_CFG_EDGE5_SEL_Msk | \
 330:Generated_Source\PSoC6\pdl\drivers/peripheral/gpio/cy_gpio.h ****                                                 GPIO_PRT_INTR_CFG_EDGE6_SEL_Msk | \
 331:Generated_Source\PSoC6\pdl\drivers/peripheral/gpio/cy_gpio.h ****                                                 GPIO_PRT_INTR_CFG_EDGE7_SEL_Msk)
 332:Generated_Source\PSoC6\pdl\drivers/peripheral/gpio/cy_gpio.h **** #define CY_GPIO_PRT_INTR_CFG_RANGE_MASK        (CY_GPIO_PRT_INTR_CFG_EDGE_SEL_MASK | \
 333:Generated_Source\PSoC6\pdl\drivers/peripheral/gpio/cy_gpio.h ****                                                 GPIO_PRT_INTR_CFG_FLT_EDGE_SEL_Msk | \
 334:Generated_Source\PSoC6\pdl\drivers/peripheral/gpio/cy_gpio.h ****                                                 GPIO_PRT_INTR_CFG_FLT_SEL_Msk)
 335:Generated_Source\PSoC6\pdl\drivers/peripheral/gpio/cy_gpio.h **** #define CY_GPIO_PRT_INT_MASK_MASK              (0x0000001FFUL)
 336:Generated_Source\PSoC6\pdl\drivers/peripheral/gpio/cy_gpio.h **** #define CY_GPIO_PRT_SEL_ACTIVE_MASK            (0x1FFFFFFFUL)
 337:Generated_Source\PSoC6\pdl\drivers/peripheral/gpio/cy_gpio.h **** 
 338:Generated_Source\PSoC6\pdl\drivers/peripheral/gpio/cy_gpio.h **** #define GPIO_MAX_SPLIT_CELL_SEGMENTS           (9U)
 339:Generated_Source\PSoC6\pdl\drivers/peripheral/gpio/cy_gpio.h **** 
 340:Generated_Source\PSoC6\pdl\drivers/peripheral/gpio/cy_gpio.h **** /* Parameter validation macros */
 341:Generated_Source\PSoC6\pdl\drivers/peripheral/gpio/cy_gpio.h **** #define CY_GPIO_IS_PIN_VALID(pinNum)           (CY_GPIO_PINS_MAX > (pinNum))
 342:Generated_Source\PSoC6\pdl\drivers/peripheral/gpio/cy_gpio.h **** #define CY_GPIO_IS_FILTER_PIN_VALID(pinNum)    (CY_GPIO_PINS_MAX >= (pinNum))
 343:Generated_Source\PSoC6\pdl\drivers/peripheral/gpio/cy_gpio.h **** #define CY_GPIO_IS_VALUE_VALID(outVal)         (1UL >= (outVal))
 344:Generated_Source\PSoC6\pdl\drivers/peripheral/gpio/cy_gpio.h **** #define CY_GPIO_IS_DM_VALID(driveMode)         (0U == ((driveMode) & (uint32_t)~CY_GPIO_CFG_DM_MASK
 345:Generated_Source\PSoC6\pdl\drivers/peripheral/gpio/cy_gpio.h **** 
 346:Generated_Source\PSoC6\pdl\drivers/peripheral/gpio/cy_gpio.h **** #define CY_GPIO_IS_HSIOM_VALID(hsiom)          (0U == ((hsiom) & (uint32_t)~CY_GPIO_HSIOM_MASK))
 347:Generated_Source\PSoC6\pdl\drivers/peripheral/gpio/cy_gpio.h **** 
 348:Generated_Source\PSoC6\pdl\drivers/peripheral/gpio/cy_gpio.h **** #define CY_GPIO_IS_INT_EDGE_VALID(intEdge)     ((CY_GPIO_INTR_DISABLE  == (intEdge)) || \
 349:Generated_Source\PSoC6\pdl\drivers/peripheral/gpio/cy_gpio.h ****                                                 (CY_GPIO_INTR_RISING   == (intEdge)) || \
 350:Generated_Source\PSoC6\pdl\drivers/peripheral/gpio/cy_gpio.h ****                                                 (CY_GPIO_INTR_FALLING  == (intEdge)) || \
 351:Generated_Source\PSoC6\pdl\drivers/peripheral/gpio/cy_gpio.h ****                                                 (CY_GPIO_INTR_BOTH     == (intEdge)))
 352:Generated_Source\PSoC6\pdl\drivers/peripheral/gpio/cy_gpio.h **** 
 353:Generated_Source\PSoC6\pdl\drivers/peripheral/gpio/cy_gpio.h **** #define CY_GPIO_IS_DRIVE_SEL_VALID(driveSel)   ((CY_GPIO_DRIVE_FULL    == (driveSel)) || \
 354:Generated_Source\PSoC6\pdl\drivers/peripheral/gpio/cy_gpio.h ****                                                 (CY_GPIO_DRIVE_1_2     == (driveSel)) || \
 355:Generated_Source\PSoC6\pdl\drivers/peripheral/gpio/cy_gpio.h ****                                                 (CY_GPIO_DRIVE_1_4     == (driveSel)) || \
 356:Generated_Source\PSoC6\pdl\drivers/peripheral/gpio/cy_gpio.h ****                                                 (CY_GPIO_DRIVE_1_8     == (driveSel)))
 357:Generated_Source\PSoC6\pdl\drivers/peripheral/gpio/cy_gpio.h **** 
 358:Generated_Source\PSoC6\pdl\drivers/peripheral/gpio/cy_gpio.h **** #define CY_GPIO_IS_VREF_SEL_VALID(vrefSel)     ((CY_SIO_VREF_PINREF    == (vrefSel)) || \
 359:Generated_Source\PSoC6\pdl\drivers/peripheral/gpio/cy_gpio.h ****                                                 (CY_SIO_VREF_1_2V      == (vrefSel)) || \
 360:Generated_Source\PSoC6\pdl\drivers/peripheral/gpio/cy_gpio.h ****                                                 (CY_SIO_VREF_AMUX_A    == (vrefSel)) || \
 361:Generated_Source\PSoC6\pdl\drivers/peripheral/gpio/cy_gpio.h ****                                                 (CY_SIO_VREF_AMUX_B    == (vrefSel)))
 362:Generated_Source\PSoC6\pdl\drivers/peripheral/gpio/cy_gpio.h **** 
 363:Generated_Source\PSoC6\pdl\drivers/peripheral/gpio/cy_gpio.h **** #define CY_GPIO_IS_VOH_SEL_VALID(vrefSel)      ((CY_SIO_VOH_1_00       == (vrefSel)) || \
 364:Generated_Source\PSoC6\pdl\drivers/peripheral/gpio/cy_gpio.h ****                                                 (CY_SIO_VOH_1_25       == (vrefSel)) || \
 365:Generated_Source\PSoC6\pdl\drivers/peripheral/gpio/cy_gpio.h ****                                                 (CY_SIO_VOH_1_49       == (vrefSel)) || \
 366:Generated_Source\PSoC6\pdl\drivers/peripheral/gpio/cy_gpio.h ****                                                 (CY_SIO_VOH_1_67       == (vrefSel)) || \
 367:Generated_Source\PSoC6\pdl\drivers/peripheral/gpio/cy_gpio.h ****                                                 (CY_SIO_VOH_2_08       == (vrefSel)) || \
 368:Generated_Source\PSoC6\pdl\drivers/peripheral/gpio/cy_gpio.h ****                                                 (CY_SIO_VOH_2_50       == (vrefSel)) || \
ARM GAS  C:\Users\Austina\AppData\Local\Temp\ccmbhoja.s 			page 35


 369:Generated_Source\PSoC6\pdl\drivers/peripheral/gpio/cy_gpio.h ****                                                 (CY_SIO_VOH_2_78       == (vrefSel)) || \
 370:Generated_Source\PSoC6\pdl\drivers/peripheral/gpio/cy_gpio.h ****                                                 (CY_SIO_VOH_4_16       == (vrefSel)))
 371:Generated_Source\PSoC6\pdl\drivers/peripheral/gpio/cy_gpio.h ****                    
 372:Generated_Source\PSoC6\pdl\drivers/peripheral/gpio/cy_gpio.h **** #define CY_GPIO_IS_PIN_BIT_VALID(pinBit)       (0U == ((pinBit) & (uint32_t)~CY_GPIO_PRT_PINS_MASK)
 373:Generated_Source\PSoC6\pdl\drivers/peripheral/gpio/cy_gpio.h **** #define CY_GPIO_IS_INTR_CFG_VALID(intrCfg)     (0U == ((intrCfg) & (uint32_t)~CY_GPIO_PRT_INTR_CFG_
 374:Generated_Source\PSoC6\pdl\drivers/peripheral/gpio/cy_gpio.h **** #define CY_GPIO_IS_INTR_MASK_VALID(intrMask)   (0U == ((intrMask) & (uint32_t)~CY_GPIO_PRT_INT_MASK
 375:Generated_Source\PSoC6\pdl\drivers/peripheral/gpio/cy_gpio.h **** #define CY_GPIO_IS_SEL_ACT_VALID(selActive)    (0U == ((selActive) & (uint32_t)~CY_GPIO_PRT_SEL_ACT
 376:Generated_Source\PSoC6\pdl\drivers/peripheral/gpio/cy_gpio.h **** 
 377:Generated_Source\PSoC6\pdl\drivers/peripheral/gpio/cy_gpio.h **** #define CY_GPIO_IS_AMUX_SPLIT_VALID(switchCtrl)       (((uint32_t) (switchCtrl)) < GPIO_MAX_SPLIT_C
 378:Generated_Source\PSoC6\pdl\drivers/peripheral/gpio/cy_gpio.h **** 
 379:Generated_Source\PSoC6\pdl\drivers/peripheral/gpio/cy_gpio.h **** #define CY_GPIO_IS_AMUX_CONNECT_VALID(amuxConnect)    ((CY_GPIO_AMUX_OPENALL == (amuxConnect)) || \
 380:Generated_Source\PSoC6\pdl\drivers/peripheral/gpio/cy_gpio.h ****                                                        (CY_GPIO_AMUX_L       == (amuxConnect)) || \
 381:Generated_Source\PSoC6\pdl\drivers/peripheral/gpio/cy_gpio.h ****                                                        (CY_GPIO_AMUX_R       == (amuxConnect)) || \
 382:Generated_Source\PSoC6\pdl\drivers/peripheral/gpio/cy_gpio.h ****                                                        (CY_GPIO_AMUX_LR      == (amuxConnect)) || \
 383:Generated_Source\PSoC6\pdl\drivers/peripheral/gpio/cy_gpio.h ****                                                        (CY_GPIO_AMUX_G       == (amuxConnect)) || \
 384:Generated_Source\PSoC6\pdl\drivers/peripheral/gpio/cy_gpio.h ****                                                        (CY_GPIO_AMUX_GL      == (amuxConnect)) || \
 385:Generated_Source\PSoC6\pdl\drivers/peripheral/gpio/cy_gpio.h ****                                                        (CY_GPIO_AMUX_GR      == (amuxConnect)) || \
 386:Generated_Source\PSoC6\pdl\drivers/peripheral/gpio/cy_gpio.h ****                                                        (CY_GPIO_AMUX_GLR     == (amuxConnect)))
 387:Generated_Source\PSoC6\pdl\drivers/peripheral/gpio/cy_gpio.h **** 
 388:Generated_Source\PSoC6\pdl\drivers/peripheral/gpio/cy_gpio.h **** #define CY_GPIO_IS_AMUX_SELECT_VALID(amuxBus)       ((CY_GPIO_AMUXBUSA       == (amuxBus)) || \
 389:Generated_Source\PSoC6\pdl\drivers/peripheral/gpio/cy_gpio.h ****                                                      (CY_GPIO_AMUXBUSB       == (amuxBus)))
 390:Generated_Source\PSoC6\pdl\drivers/peripheral/gpio/cy_gpio.h **** /** \endcond */
 391:Generated_Source\PSoC6\pdl\drivers/peripheral/gpio/cy_gpio.h **** 
 392:Generated_Source\PSoC6\pdl\drivers/peripheral/gpio/cy_gpio.h **** 
 393:Generated_Source\PSoC6\pdl\drivers/peripheral/gpio/cy_gpio.h **** /***************************************
 394:Generated_Source\PSoC6\pdl\drivers/peripheral/gpio/cy_gpio.h **** *        Function Constants
 395:Generated_Source\PSoC6\pdl\drivers/peripheral/gpio/cy_gpio.h **** ***************************************/
 396:Generated_Source\PSoC6\pdl\drivers/peripheral/gpio/cy_gpio.h **** 
 397:Generated_Source\PSoC6\pdl\drivers/peripheral/gpio/cy_gpio.h **** /**
 398:Generated_Source\PSoC6\pdl\drivers/peripheral/gpio/cy_gpio.h **** * \addtogroup group_gpio_macros
 399:Generated_Source\PSoC6\pdl\drivers/peripheral/gpio/cy_gpio.h **** * \{
 400:Generated_Source\PSoC6\pdl\drivers/peripheral/gpio/cy_gpio.h **** */
 401:Generated_Source\PSoC6\pdl\drivers/peripheral/gpio/cy_gpio.h **** 
 402:Generated_Source\PSoC6\pdl\drivers/peripheral/gpio/cy_gpio.h **** /**
 403:Generated_Source\PSoC6\pdl\drivers/peripheral/gpio/cy_gpio.h **** * \defgroup group_gpio_driveModes Pin drive mode
 404:Generated_Source\PSoC6\pdl\drivers/peripheral/gpio/cy_gpio.h **** * \{
 405:Generated_Source\PSoC6\pdl\drivers/peripheral/gpio/cy_gpio.h **** * Constants to be used for setting the drive mode of the pin.
 406:Generated_Source\PSoC6\pdl\drivers/peripheral/gpio/cy_gpio.h **** */
 407:Generated_Source\PSoC6\pdl\drivers/peripheral/gpio/cy_gpio.h **** #define CY_GPIO_DM_ANALOG                      (0x00UL) /**< Analog High-Z. Input buffer off */
 408:Generated_Source\PSoC6\pdl\drivers/peripheral/gpio/cy_gpio.h **** #define CY_GPIO_DM_PULLUP_IN_OFF               (0x02UL) /**< Resistive Pull-Up. Input buffer off */
 409:Generated_Source\PSoC6\pdl\drivers/peripheral/gpio/cy_gpio.h **** #define CY_GPIO_DM_PULLDOWN_IN_OFF             (0x03UL) /**< Resistive Pull-Down. Input buffer off 
 410:Generated_Source\PSoC6\pdl\drivers/peripheral/gpio/cy_gpio.h **** #define CY_GPIO_DM_OD_DRIVESLOW_IN_OFF         (0x04UL) /**< Open Drain, Drives Low. Input buffer o
 411:Generated_Source\PSoC6\pdl\drivers/peripheral/gpio/cy_gpio.h **** #define CY_GPIO_DM_OD_DRIVESHIGH_IN_OFF        (0x05UL) /**< Open Drain, Drives High. Input buffer 
 412:Generated_Source\PSoC6\pdl\drivers/peripheral/gpio/cy_gpio.h **** #define CY_GPIO_DM_STRONG_IN_OFF               (0x06UL) /**< Strong Drive. Input buffer off */
 413:Generated_Source\PSoC6\pdl\drivers/peripheral/gpio/cy_gpio.h **** #define CY_GPIO_DM_PULLUP_DOWN_IN_OFF          (0x07UL) /**< Resistive Pull-Up/Down. Input buffer o
 414:Generated_Source\PSoC6\pdl\drivers/peripheral/gpio/cy_gpio.h **** #define CY_GPIO_DM_HIGHZ                       (0x08UL) /**< Digital High-Z. Input buffer on */
 415:Generated_Source\PSoC6\pdl\drivers/peripheral/gpio/cy_gpio.h **** #define CY_GPIO_DM_PULLUP                      (0x0AUL) /**< Resistive Pull-Up. Input buffer on */
 416:Generated_Source\PSoC6\pdl\drivers/peripheral/gpio/cy_gpio.h **** #define CY_GPIO_DM_PULLDOWN                    (0x0BUL) /**< Resistive Pull-Down. Input buffer on *
 417:Generated_Source\PSoC6\pdl\drivers/peripheral/gpio/cy_gpio.h **** #define CY_GPIO_DM_OD_DRIVESLOW                (0x0CUL) /**< Open Drain, Drives Low. Input buffer o
 418:Generated_Source\PSoC6\pdl\drivers/peripheral/gpio/cy_gpio.h **** #define CY_GPIO_DM_OD_DRIVESHIGH               (0x0DUL) /**< Open Drain, Drives High. Input buffer 
 419:Generated_Source\PSoC6\pdl\drivers/peripheral/gpio/cy_gpio.h **** #define CY_GPIO_DM_STRONG                      (0x0EUL) /**< Strong Drive. Input buffer on */
 420:Generated_Source\PSoC6\pdl\drivers/peripheral/gpio/cy_gpio.h **** #define CY_GPIO_DM_PULLUP_DOWN                 (0x0FUL) /**< Resistive Pull-Up/Down. Input buffer o
 421:Generated_Source\PSoC6\pdl\drivers/peripheral/gpio/cy_gpio.h **** /** \} */
 422:Generated_Source\PSoC6\pdl\drivers/peripheral/gpio/cy_gpio.h **** 
 423:Generated_Source\PSoC6\pdl\drivers/peripheral/gpio/cy_gpio.h **** /**
 424:Generated_Source\PSoC6\pdl\drivers/peripheral/gpio/cy_gpio.h **** * \defgroup group_gpio_vtrip Voltage trip mode
 425:Generated_Source\PSoC6\pdl\drivers/peripheral/gpio/cy_gpio.h **** * \{
ARM GAS  C:\Users\Austina\AppData\Local\Temp\ccmbhoja.s 			page 36


 426:Generated_Source\PSoC6\pdl\drivers/peripheral/gpio/cy_gpio.h **** * Constants to be used for setting the voltage trip type on the pin.
 427:Generated_Source\PSoC6\pdl\drivers/peripheral/gpio/cy_gpio.h **** */
 428:Generated_Source\PSoC6\pdl\drivers/peripheral/gpio/cy_gpio.h **** #define CY_GPIO_VTRIP_CMOS                     (0x00UL) /**< Input buffer compatible with CMOS and 
 429:Generated_Source\PSoC6\pdl\drivers/peripheral/gpio/cy_gpio.h **** #define CY_GPIO_VTRIP_TTL                      (0x01UL) /**< Input buffer compatible with TTL and M
 430:Generated_Source\PSoC6\pdl\drivers/peripheral/gpio/cy_gpio.h **** /** \} */
 431:Generated_Source\PSoC6\pdl\drivers/peripheral/gpio/cy_gpio.h **** 
 432:Generated_Source\PSoC6\pdl\drivers/peripheral/gpio/cy_gpio.h **** /**
 433:Generated_Source\PSoC6\pdl\drivers/peripheral/gpio/cy_gpio.h **** * \defgroup group_gpio_slewRate Slew Rate Mode
 434:Generated_Source\PSoC6\pdl\drivers/peripheral/gpio/cy_gpio.h **** * \{
 435:Generated_Source\PSoC6\pdl\drivers/peripheral/gpio/cy_gpio.h **** * Constants to be used for setting the slew rate of the pin.
 436:Generated_Source\PSoC6\pdl\drivers/peripheral/gpio/cy_gpio.h **** */
 437:Generated_Source\PSoC6\pdl\drivers/peripheral/gpio/cy_gpio.h **** #define CY_GPIO_SLEW_FAST                      (0x00UL) /**< Fast slew rate */
 438:Generated_Source\PSoC6\pdl\drivers/peripheral/gpio/cy_gpio.h **** #define CY_GPIO_SLEW_SLOW                      (0x01UL) /**< Slow slew rate */
 439:Generated_Source\PSoC6\pdl\drivers/peripheral/gpio/cy_gpio.h **** /** \} */
 440:Generated_Source\PSoC6\pdl\drivers/peripheral/gpio/cy_gpio.h **** 
 441:Generated_Source\PSoC6\pdl\drivers/peripheral/gpio/cy_gpio.h **** /**
 442:Generated_Source\PSoC6\pdl\drivers/peripheral/gpio/cy_gpio.h **** * \defgroup group_gpio_driveStrength Pin drive strength
 443:Generated_Source\PSoC6\pdl\drivers/peripheral/gpio/cy_gpio.h **** * \{
 444:Generated_Source\PSoC6\pdl\drivers/peripheral/gpio/cy_gpio.h **** * Constants to be used for setting the drive strength of the pin.
 445:Generated_Source\PSoC6\pdl\drivers/peripheral/gpio/cy_gpio.h **** */
 446:Generated_Source\PSoC6\pdl\drivers/peripheral/gpio/cy_gpio.h **** #define CY_GPIO_DRIVE_FULL                     (0x00UL) /**< Full drive strength: Max drive current
 447:Generated_Source\PSoC6\pdl\drivers/peripheral/gpio/cy_gpio.h **** #define CY_GPIO_DRIVE_1_2                      (0x01UL) /**< 1/2 drive strength: 1/2 drive current 
 448:Generated_Source\PSoC6\pdl\drivers/peripheral/gpio/cy_gpio.h **** #define CY_GPIO_DRIVE_1_4                      (0x02UL) /**< 1/4 drive strength: 1/4 drive current 
 449:Generated_Source\PSoC6\pdl\drivers/peripheral/gpio/cy_gpio.h **** #define CY_GPIO_DRIVE_1_8                      (0x03UL) /**< 1/8 drive strength: 1/8 drive current 
 450:Generated_Source\PSoC6\pdl\drivers/peripheral/gpio/cy_gpio.h **** /** \} */
 451:Generated_Source\PSoC6\pdl\drivers/peripheral/gpio/cy_gpio.h **** 
 452:Generated_Source\PSoC6\pdl\drivers/peripheral/gpio/cy_gpio.h **** /**
 453:Generated_Source\PSoC6\pdl\drivers/peripheral/gpio/cy_gpio.h **** * \defgroup group_gpio_interruptTrigger Interrupt trigger type
 454:Generated_Source\PSoC6\pdl\drivers/peripheral/gpio/cy_gpio.h **** * \{
 455:Generated_Source\PSoC6\pdl\drivers/peripheral/gpio/cy_gpio.h **** * Constants to be used for setting the interrupt trigger type on the pin.
 456:Generated_Source\PSoC6\pdl\drivers/peripheral/gpio/cy_gpio.h **** */
 457:Generated_Source\PSoC6\pdl\drivers/peripheral/gpio/cy_gpio.h **** #define CY_GPIO_INTR_DISABLE                   (0x00UL) /**< Disable the pin interrupt generation *
 458:Generated_Source\PSoC6\pdl\drivers/peripheral/gpio/cy_gpio.h **** #define CY_GPIO_INTR_RISING                    (0x01UL) /**< Rising-Edge interrupt */
 459:Generated_Source\PSoC6\pdl\drivers/peripheral/gpio/cy_gpio.h **** #define CY_GPIO_INTR_FALLING                   (0x02UL) /**< Falling-Edge interrupt */
 460:Generated_Source\PSoC6\pdl\drivers/peripheral/gpio/cy_gpio.h **** #define CY_GPIO_INTR_BOTH                      (0x03UL) /**< Both-Edge interrupt */
 461:Generated_Source\PSoC6\pdl\drivers/peripheral/gpio/cy_gpio.h **** /** \} */
 462:Generated_Source\PSoC6\pdl\drivers/peripheral/gpio/cy_gpio.h **** 
 463:Generated_Source\PSoC6\pdl\drivers/peripheral/gpio/cy_gpio.h **** /**
 464:Generated_Source\PSoC6\pdl\drivers/peripheral/gpio/cy_gpio.h **** * \defgroup group_gpio_sioVreg SIO output buffer mode
 465:Generated_Source\PSoC6\pdl\drivers/peripheral/gpio/cy_gpio.h **** * \{
 466:Generated_Source\PSoC6\pdl\drivers/peripheral/gpio/cy_gpio.h **** * Constants to be used for setting the SIO output buffer mode on the pin.
 467:Generated_Source\PSoC6\pdl\drivers/peripheral/gpio/cy_gpio.h **** */
 468:Generated_Source\PSoC6\pdl\drivers/peripheral/gpio/cy_gpio.h **** #define CY_SIO_VREG_UNREGULATED                (0x00UL) /**< Unregulated output buffer */
 469:Generated_Source\PSoC6\pdl\drivers/peripheral/gpio/cy_gpio.h **** #define CY_SIO_VREG_REGULATED                  (0x01UL) /**< Regulated output buffer */
 470:Generated_Source\PSoC6\pdl\drivers/peripheral/gpio/cy_gpio.h **** /** \} */
 471:Generated_Source\PSoC6\pdl\drivers/peripheral/gpio/cy_gpio.h **** 
 472:Generated_Source\PSoC6\pdl\drivers/peripheral/gpio/cy_gpio.h **** /**
 473:Generated_Source\PSoC6\pdl\drivers/peripheral/gpio/cy_gpio.h **** * \defgroup group_gpio_sioIbuf SIO input buffer mode
 474:Generated_Source\PSoC6\pdl\drivers/peripheral/gpio/cy_gpio.h **** * \{
 475:Generated_Source\PSoC6\pdl\drivers/peripheral/gpio/cy_gpio.h **** * Constants to be used for setting the SIO input buffer mode on the pin.
 476:Generated_Source\PSoC6\pdl\drivers/peripheral/gpio/cy_gpio.h **** */
 477:Generated_Source\PSoC6\pdl\drivers/peripheral/gpio/cy_gpio.h **** #define CY_SIO_IBUF_SINGLEENDED                (0x00UL) /**< Single ended input buffer */
 478:Generated_Source\PSoC6\pdl\drivers/peripheral/gpio/cy_gpio.h **** #define CY_SIO_IBUF_DIFFERENTIAL               (0x01UL) /**< Differential input buffer */
 479:Generated_Source\PSoC6\pdl\drivers/peripheral/gpio/cy_gpio.h **** /** \} */
 480:Generated_Source\PSoC6\pdl\drivers/peripheral/gpio/cy_gpio.h **** 
 481:Generated_Source\PSoC6\pdl\drivers/peripheral/gpio/cy_gpio.h **** /**
 482:Generated_Source\PSoC6\pdl\drivers/peripheral/gpio/cy_gpio.h **** * \defgroup group_gpio_sioVtrip SIO input buffer trip-point
ARM GAS  C:\Users\Austina\AppData\Local\Temp\ccmbhoja.s 			page 37


 483:Generated_Source\PSoC6\pdl\drivers/peripheral/gpio/cy_gpio.h **** * \{
 484:Generated_Source\PSoC6\pdl\drivers/peripheral/gpio/cy_gpio.h **** * Constants to be used for setting the SIO input buffer trip-point of the pin.
 485:Generated_Source\PSoC6\pdl\drivers/peripheral/gpio/cy_gpio.h **** */
 486:Generated_Source\PSoC6\pdl\drivers/peripheral/gpio/cy_gpio.h **** #define CY_SIO_VTRIP_CMOS                      (0x00UL) /**< CMOS input buffer (single-ended) */
 487:Generated_Source\PSoC6\pdl\drivers/peripheral/gpio/cy_gpio.h **** #define CY_SIO_VTRIP_TTL                       (0x01UL) /**< TTL input buffer (single-ended) */
 488:Generated_Source\PSoC6\pdl\drivers/peripheral/gpio/cy_gpio.h **** #define CY_SIO_VTRIP_0_5VDDIO_0_5VOH           (0x00UL) /**< 0.5xVddio or 0.5xVoh (differential) */
 489:Generated_Source\PSoC6\pdl\drivers/peripheral/gpio/cy_gpio.h **** #define CY_SIO_VTRIP_0_4VDDIO_1_0VREF          (0x01UL) /**< 0.4xVddio or 0.4xVoh (differential) */
 490:Generated_Source\PSoC6\pdl\drivers/peripheral/gpio/cy_gpio.h **** /** \} */
 491:Generated_Source\PSoC6\pdl\drivers/peripheral/gpio/cy_gpio.h **** 
 492:Generated_Source\PSoC6\pdl\drivers/peripheral/gpio/cy_gpio.h **** /**
 493:Generated_Source\PSoC6\pdl\drivers/peripheral/gpio/cy_gpio.h **** * \defgroup group_gpio_sioVref SIO reference voltage for input buffer trip-point
 494:Generated_Source\PSoC6\pdl\drivers/peripheral/gpio/cy_gpio.h **** * \{
 495:Generated_Source\PSoC6\pdl\drivers/peripheral/gpio/cy_gpio.h **** * Constants to be used for setting the reference voltage of SIO input buffer trip-point.
 496:Generated_Source\PSoC6\pdl\drivers/peripheral/gpio/cy_gpio.h **** */
 497:Generated_Source\PSoC6\pdl\drivers/peripheral/gpio/cy_gpio.h **** #define CY_SIO_VREF_PINREF                     (0x00UL) /**< Vref from analog pin */
 498:Generated_Source\PSoC6\pdl\drivers/peripheral/gpio/cy_gpio.h **** #define CY_SIO_VREF_1_2V                       (0x01UL) /**< Vref from internal 1.2V reference */
 499:Generated_Source\PSoC6\pdl\drivers/peripheral/gpio/cy_gpio.h **** #define CY_SIO_VREF_AMUX_A                     (0x02UL) /**< Vref from AMUXBUS_A */
 500:Generated_Source\PSoC6\pdl\drivers/peripheral/gpio/cy_gpio.h **** #define CY_SIO_VREF_AMUX_B                     (0x03UL) /**< Vref from AMUXBUS_B */
 501:Generated_Source\PSoC6\pdl\drivers/peripheral/gpio/cy_gpio.h **** /** \} */
 502:Generated_Source\PSoC6\pdl\drivers/peripheral/gpio/cy_gpio.h **** 
 503:Generated_Source\PSoC6\pdl\drivers/peripheral/gpio/cy_gpio.h **** /**
 504:Generated_Source\PSoC6\pdl\drivers/peripheral/gpio/cy_gpio.h **** * \defgroup group_gpio_sioVoh Regulated output voltage level (Voh) and input buffer trip-point of a
 505:Generated_Source\PSoC6\pdl\drivers/peripheral/gpio/cy_gpio.h **** * \{
 506:Generated_Source\PSoC6\pdl\drivers/peripheral/gpio/cy_gpio.h **** * Constants to be used for setting the Voh and input buffer trip-point of an SIO pair
 507:Generated_Source\PSoC6\pdl\drivers/peripheral/gpio/cy_gpio.h **** */
 508:Generated_Source\PSoC6\pdl\drivers/peripheral/gpio/cy_gpio.h **** #define CY_SIO_VOH_1_00                        (0x00UL) /**< Voh = 1 x Reference */
 509:Generated_Source\PSoC6\pdl\drivers/peripheral/gpio/cy_gpio.h **** #define CY_SIO_VOH_1_25                        (0x01UL) /**< Voh = 1.25 x Reference */
 510:Generated_Source\PSoC6\pdl\drivers/peripheral/gpio/cy_gpio.h **** #define CY_SIO_VOH_1_49                        (0x02UL) /**< Voh = 1.49 x Reference */
 511:Generated_Source\PSoC6\pdl\drivers/peripheral/gpio/cy_gpio.h **** #define CY_SIO_VOH_1_67                        (0x03UL) /**< Voh = 1.67 x Reference */
 512:Generated_Source\PSoC6\pdl\drivers/peripheral/gpio/cy_gpio.h **** #define CY_SIO_VOH_2_08                        (0x04UL) /**< Voh = 2.08 x Reference */
 513:Generated_Source\PSoC6\pdl\drivers/peripheral/gpio/cy_gpio.h **** #define CY_SIO_VOH_2_50                        (0x05UL) /**< Voh = 2.50 x Reference */
 514:Generated_Source\PSoC6\pdl\drivers/peripheral/gpio/cy_gpio.h **** #define CY_SIO_VOH_2_78                        (0x06UL) /**< Voh = 2.78 x Reference */
 515:Generated_Source\PSoC6\pdl\drivers/peripheral/gpio/cy_gpio.h **** #define CY_SIO_VOH_4_16                        (0x07UL) /**< Voh = 4.16 x Reference */
 516:Generated_Source\PSoC6\pdl\drivers/peripheral/gpio/cy_gpio.h **** /** \} */
 517:Generated_Source\PSoC6\pdl\drivers/peripheral/gpio/cy_gpio.h **** 
 518:Generated_Source\PSoC6\pdl\drivers/peripheral/gpio/cy_gpio.h **** /** \} group_gpio_macros */
 519:Generated_Source\PSoC6\pdl\drivers/peripheral/gpio/cy_gpio.h **** 
 520:Generated_Source\PSoC6\pdl\drivers/peripheral/gpio/cy_gpio.h **** /***************************************
 521:Generated_Source\PSoC6\pdl\drivers/peripheral/gpio/cy_gpio.h **** *        Function Prototypes
 522:Generated_Source\PSoC6\pdl\drivers/peripheral/gpio/cy_gpio.h **** ***************************************/
 523:Generated_Source\PSoC6\pdl\drivers/peripheral/gpio/cy_gpio.h **** 
 524:Generated_Source\PSoC6\pdl\drivers/peripheral/gpio/cy_gpio.h **** /**
 525:Generated_Source\PSoC6\pdl\drivers/peripheral/gpio/cy_gpio.h **** * \addtogroup group_gpio_functions
 526:Generated_Source\PSoC6\pdl\drivers/peripheral/gpio/cy_gpio.h **** * \{
 527:Generated_Source\PSoC6\pdl\drivers/peripheral/gpio/cy_gpio.h **** */
 528:Generated_Source\PSoC6\pdl\drivers/peripheral/gpio/cy_gpio.h **** 
 529:Generated_Source\PSoC6\pdl\drivers/peripheral/gpio/cy_gpio.h **** /**
 530:Generated_Source\PSoC6\pdl\drivers/peripheral/gpio/cy_gpio.h **** * \addtogroup group_gpio_functions_init
 531:Generated_Source\PSoC6\pdl\drivers/peripheral/gpio/cy_gpio.h **** * \{
 532:Generated_Source\PSoC6\pdl\drivers/peripheral/gpio/cy_gpio.h **** */
 533:Generated_Source\PSoC6\pdl\drivers/peripheral/gpio/cy_gpio.h **** 
 534:Generated_Source\PSoC6\pdl\drivers/peripheral/gpio/cy_gpio.h **** cy_en_gpio_status_t Cy_GPIO_Pin_Init(GPIO_PRT_Type* base, uint32_t pinNum, const cy_stc_gpio_pin_co
 535:Generated_Source\PSoC6\pdl\drivers/peripheral/gpio/cy_gpio.h **** cy_en_gpio_status_t Cy_GPIO_Port_Init(GPIO_PRT_Type* base, const cy_stc_gpio_prt_config_t *config);
 536:Generated_Source\PSoC6\pdl\drivers/peripheral/gpio/cy_gpio.h **** void Cy_GPIO_Pin_FastInit(GPIO_PRT_Type* base, uint32_t pinNum, uint32_t driveMode, uint32_t outVal
 537:Generated_Source\PSoC6\pdl\drivers/peripheral/gpio/cy_gpio.h **** void Cy_GPIO_Port_Deinit(GPIO_PRT_Type* base);
 538:Generated_Source\PSoC6\pdl\drivers/peripheral/gpio/cy_gpio.h **** __STATIC_INLINE void Cy_GPIO_SetHSIOM(GPIO_PRT_Type* base, uint32_t pinNum, en_hsiom_sel_t value);
 539:Generated_Source\PSoC6\pdl\drivers/peripheral/gpio/cy_gpio.h **** __STATIC_INLINE en_hsiom_sel_t Cy_GPIO_GetHSIOM(GPIO_PRT_Type* base, uint32_t pinNum);
ARM GAS  C:\Users\Austina\AppData\Local\Temp\ccmbhoja.s 			page 38


 540:Generated_Source\PSoC6\pdl\drivers/peripheral/gpio/cy_gpio.h **** __STATIC_INLINE GPIO_PRT_Type* Cy_GPIO_PortToAddr(uint32_t portNum);
 541:Generated_Source\PSoC6\pdl\drivers/peripheral/gpio/cy_gpio.h **** 
 542:Generated_Source\PSoC6\pdl\drivers/peripheral/gpio/cy_gpio.h **** /** \} group_gpio_functions_init */
 543:Generated_Source\PSoC6\pdl\drivers/peripheral/gpio/cy_gpio.h **** 
 544:Generated_Source\PSoC6\pdl\drivers/peripheral/gpio/cy_gpio.h **** /**
 545:Generated_Source\PSoC6\pdl\drivers/peripheral/gpio/cy_gpio.h **** * \addtogroup group_gpio_functions_gpio
 546:Generated_Source\PSoC6\pdl\drivers/peripheral/gpio/cy_gpio.h **** * \{
 547:Generated_Source\PSoC6\pdl\drivers/peripheral/gpio/cy_gpio.h **** */
 548:Generated_Source\PSoC6\pdl\drivers/peripheral/gpio/cy_gpio.h **** 
 549:Generated_Source\PSoC6\pdl\drivers/peripheral/gpio/cy_gpio.h **** void Cy_GPIO_SetAmuxSplit(cy_en_amux_split_t switchCtrl, cy_en_gpio_amuxconnect_t amuxConnect, cy_e
 550:Generated_Source\PSoC6\pdl\drivers/peripheral/gpio/cy_gpio.h **** cy_en_gpio_amuxconnect_t Cy_GPIO_GetAmuxSplit(cy_en_amux_split_t switchCtrl, cy_en_gpio_amuxselect_
 551:Generated_Source\PSoC6\pdl\drivers/peripheral/gpio/cy_gpio.h **** 
 552:Generated_Source\PSoC6\pdl\drivers/peripheral/gpio/cy_gpio.h **** __STATIC_INLINE uint32_t Cy_GPIO_Read(GPIO_PRT_Type* base, uint32_t pinNum);
 553:Generated_Source\PSoC6\pdl\drivers/peripheral/gpio/cy_gpio.h **** __STATIC_INLINE void Cy_GPIO_Write(GPIO_PRT_Type* base, uint32_t pinNum, uint32_t value);
 554:Generated_Source\PSoC6\pdl\drivers/peripheral/gpio/cy_gpio.h **** __STATIC_INLINE uint32_t Cy_GPIO_ReadOut(GPIO_PRT_Type* base, uint32_t pinNum);
 555:Generated_Source\PSoC6\pdl\drivers/peripheral/gpio/cy_gpio.h **** __STATIC_INLINE void Cy_GPIO_Set(GPIO_PRT_Type* base, uint32_t pinNum);
 556:Generated_Source\PSoC6\pdl\drivers/peripheral/gpio/cy_gpio.h **** __STATIC_INLINE void Cy_GPIO_Clr(GPIO_PRT_Type* base, uint32_t pinNum);
 557:Generated_Source\PSoC6\pdl\drivers/peripheral/gpio/cy_gpio.h **** __STATIC_INLINE void Cy_GPIO_Inv(GPIO_PRT_Type* base, uint32_t pinNum);
 558:Generated_Source\PSoC6\pdl\drivers/peripheral/gpio/cy_gpio.h **** __STATIC_INLINE void Cy_GPIO_SetDrivemode(GPIO_PRT_Type* base, uint32_t pinNum, uint32_t value);
 559:Generated_Source\PSoC6\pdl\drivers/peripheral/gpio/cy_gpio.h **** __STATIC_INLINE uint32_t Cy_GPIO_GetDrivemode(GPIO_PRT_Type* base, uint32_t pinNum);
 560:Generated_Source\PSoC6\pdl\drivers/peripheral/gpio/cy_gpio.h **** __STATIC_INLINE void Cy_GPIO_SetVtrip(GPIO_PRT_Type* base, uint32_t pinNum, uint32_t value);
 561:Generated_Source\PSoC6\pdl\drivers/peripheral/gpio/cy_gpio.h **** __STATIC_INLINE uint32_t Cy_GPIO_GetVtrip(GPIO_PRT_Type* base, uint32_t pinNum);
 562:Generated_Source\PSoC6\pdl\drivers/peripheral/gpio/cy_gpio.h **** __STATIC_INLINE void Cy_GPIO_SetSlewRate(GPIO_PRT_Type* base, uint32_t pinNum, uint32_t value);
 563:Generated_Source\PSoC6\pdl\drivers/peripheral/gpio/cy_gpio.h **** __STATIC_INLINE uint32_t Cy_GPIO_GetSlewRate(GPIO_PRT_Type* base, uint32_t pinNum);
 564:Generated_Source\PSoC6\pdl\drivers/peripheral/gpio/cy_gpio.h **** __STATIC_INLINE void Cy_GPIO_SetDriveSel(GPIO_PRT_Type* base, uint32_t pinNum, uint32_t value);
 565:Generated_Source\PSoC6\pdl\drivers/peripheral/gpio/cy_gpio.h **** __STATIC_INLINE uint32_t Cy_GPIO_GetDriveSel(GPIO_PRT_Type* base, uint32_t pinNum);
 566:Generated_Source\PSoC6\pdl\drivers/peripheral/gpio/cy_gpio.h **** 
 567:Generated_Source\PSoC6\pdl\drivers/peripheral/gpio/cy_gpio.h **** /** \} group_gpio_functions_gpio */
 568:Generated_Source\PSoC6\pdl\drivers/peripheral/gpio/cy_gpio.h **** 
 569:Generated_Source\PSoC6\pdl\drivers/peripheral/gpio/cy_gpio.h **** /**
 570:Generated_Source\PSoC6\pdl\drivers/peripheral/gpio/cy_gpio.h **** * \addtogroup group_gpio_functions_sio
 571:Generated_Source\PSoC6\pdl\drivers/peripheral/gpio/cy_gpio.h **** * \{
 572:Generated_Source\PSoC6\pdl\drivers/peripheral/gpio/cy_gpio.h **** */
 573:Generated_Source\PSoC6\pdl\drivers/peripheral/gpio/cy_gpio.h **** 
 574:Generated_Source\PSoC6\pdl\drivers/peripheral/gpio/cy_gpio.h **** __STATIC_INLINE void Cy_GPIO_SetVregEn(GPIO_PRT_Type* base, uint32_t pinNum, uint32_t value);
 575:Generated_Source\PSoC6\pdl\drivers/peripheral/gpio/cy_gpio.h **** __STATIC_INLINE uint32_t Cy_GPIO_GetVregEn(GPIO_PRT_Type* base, uint32_t pinNum);
 576:Generated_Source\PSoC6\pdl\drivers/peripheral/gpio/cy_gpio.h **** __STATIC_INLINE void Cy_GPIO_SetIbufMode(GPIO_PRT_Type* base, uint32_t pinNum, uint32_t value);
 577:Generated_Source\PSoC6\pdl\drivers/peripheral/gpio/cy_gpio.h **** __STATIC_INLINE uint32_t Cy_GPIO_GetIbufMode(GPIO_PRT_Type* base, uint32_t pinNum);
 578:Generated_Source\PSoC6\pdl\drivers/peripheral/gpio/cy_gpio.h **** __STATIC_INLINE void Cy_GPIO_SetVtripSel(GPIO_PRT_Type* base, uint32_t pinNum, uint32_t value);
 579:Generated_Source\PSoC6\pdl\drivers/peripheral/gpio/cy_gpio.h **** __STATIC_INLINE uint32_t Cy_GPIO_GetVtripSel(GPIO_PRT_Type* base, uint32_t pinNum);
 580:Generated_Source\PSoC6\pdl\drivers/peripheral/gpio/cy_gpio.h **** __STATIC_INLINE void Cy_GPIO_SetVrefSel(GPIO_PRT_Type* base, uint32_t pinNum, uint32_t value);
 581:Generated_Source\PSoC6\pdl\drivers/peripheral/gpio/cy_gpio.h **** __STATIC_INLINE uint32_t Cy_GPIO_GetVrefSel(GPIO_PRT_Type* base, uint32_t pinNum);
 582:Generated_Source\PSoC6\pdl\drivers/peripheral/gpio/cy_gpio.h **** __STATIC_INLINE void Cy_GPIO_SetVohSel(GPIO_PRT_Type* base, uint32_t pinNum, uint32_t value);
 583:Generated_Source\PSoC6\pdl\drivers/peripheral/gpio/cy_gpio.h **** __STATIC_INLINE uint32_t Cy_GPIO_GetVohSel(GPIO_PRT_Type* base, uint32_t pinNum);
 584:Generated_Source\PSoC6\pdl\drivers/peripheral/gpio/cy_gpio.h **** 
 585:Generated_Source\PSoC6\pdl\drivers/peripheral/gpio/cy_gpio.h **** /** \} group_gpio_functions_sio */
 586:Generated_Source\PSoC6\pdl\drivers/peripheral/gpio/cy_gpio.h **** 
 587:Generated_Source\PSoC6\pdl\drivers/peripheral/gpio/cy_gpio.h **** /**
 588:Generated_Source\PSoC6\pdl\drivers/peripheral/gpio/cy_gpio.h **** * \addtogroup group_gpio_functions_interrupt
 589:Generated_Source\PSoC6\pdl\drivers/peripheral/gpio/cy_gpio.h **** * \{
 590:Generated_Source\PSoC6\pdl\drivers/peripheral/gpio/cy_gpio.h **** */
 591:Generated_Source\PSoC6\pdl\drivers/peripheral/gpio/cy_gpio.h **** 
 592:Generated_Source\PSoC6\pdl\drivers/peripheral/gpio/cy_gpio.h **** __STATIC_INLINE uint32_t Cy_GPIO_GetInterruptStatus(GPIO_PRT_Type* base, uint32_t pinNum);
 593:Generated_Source\PSoC6\pdl\drivers/peripheral/gpio/cy_gpio.h **** __STATIC_INLINE void Cy_GPIO_ClearInterrupt(GPIO_PRT_Type* base, uint32_t pinNum);
 594:Generated_Source\PSoC6\pdl\drivers/peripheral/gpio/cy_gpio.h **** __STATIC_INLINE void Cy_GPIO_SetInterruptMask(GPIO_PRT_Type* base, uint32_t pinNum, uint32_t value)
 595:Generated_Source\PSoC6\pdl\drivers/peripheral/gpio/cy_gpio.h **** __STATIC_INLINE uint32_t Cy_GPIO_GetInterruptMask(GPIO_PRT_Type* base, uint32_t pinNum);
 596:Generated_Source\PSoC6\pdl\drivers/peripheral/gpio/cy_gpio.h **** __STATIC_INLINE uint32_t Cy_GPIO_GetInterruptStatusMasked(GPIO_PRT_Type* base, uint32_t pinNum);
ARM GAS  C:\Users\Austina\AppData\Local\Temp\ccmbhoja.s 			page 39


 597:Generated_Source\PSoC6\pdl\drivers/peripheral/gpio/cy_gpio.h **** __STATIC_INLINE void Cy_GPIO_SetSwInterrupt(GPIO_PRT_Type* base, uint32_t pinNum);
 598:Generated_Source\PSoC6\pdl\drivers/peripheral/gpio/cy_gpio.h **** __STATIC_INLINE void Cy_GPIO_SetInterruptEdge(GPIO_PRT_Type* base, uint32_t pinNum, uint32_t value)
 599:Generated_Source\PSoC6\pdl\drivers/peripheral/gpio/cy_gpio.h **** __STATIC_INLINE uint32_t Cy_GPIO_GetInterruptEdge(GPIO_PRT_Type* base, uint32_t pinNum);
 600:Generated_Source\PSoC6\pdl\drivers/peripheral/gpio/cy_gpio.h **** __STATIC_INLINE void Cy_GPIO_SetFilter(GPIO_PRT_Type* base, uint32_t value);
 601:Generated_Source\PSoC6\pdl\drivers/peripheral/gpio/cy_gpio.h **** __STATIC_INLINE uint32_t Cy_GPIO_GetFilter(GPIO_PRT_Type* base);
 602:Generated_Source\PSoC6\pdl\drivers/peripheral/gpio/cy_gpio.h **** 
 603:Generated_Source\PSoC6\pdl\drivers/peripheral/gpio/cy_gpio.h **** __STATIC_INLINE uint32_t Cy_GPIO_GetInterruptCause0(void);
 604:Generated_Source\PSoC6\pdl\drivers/peripheral/gpio/cy_gpio.h **** __STATIC_INLINE uint32_t Cy_GPIO_GetInterruptCause1(void);
 605:Generated_Source\PSoC6\pdl\drivers/peripheral/gpio/cy_gpio.h **** __STATIC_INLINE uint32_t Cy_GPIO_GetInterruptCause2(void);
 606:Generated_Source\PSoC6\pdl\drivers/peripheral/gpio/cy_gpio.h **** __STATIC_INLINE uint32_t Cy_GPIO_GetInterruptCause3(void);
 607:Generated_Source\PSoC6\pdl\drivers/peripheral/gpio/cy_gpio.h **** 
 608:Generated_Source\PSoC6\pdl\drivers/peripheral/gpio/cy_gpio.h **** /** \} group_gpio_functions_interrupt */
 609:Generated_Source\PSoC6\pdl\drivers/peripheral/gpio/cy_gpio.h **** 
 610:Generated_Source\PSoC6\pdl\drivers/peripheral/gpio/cy_gpio.h **** 
 611:Generated_Source\PSoC6\pdl\drivers/peripheral/gpio/cy_gpio.h **** /**
 612:Generated_Source\PSoC6\pdl\drivers/peripheral/gpio/cy_gpio.h **** * \addtogroup group_gpio_functions_init
 613:Generated_Source\PSoC6\pdl\drivers/peripheral/gpio/cy_gpio.h **** * \{
 614:Generated_Source\PSoC6\pdl\drivers/peripheral/gpio/cy_gpio.h **** */
 615:Generated_Source\PSoC6\pdl\drivers/peripheral/gpio/cy_gpio.h **** 
 616:Generated_Source\PSoC6\pdl\drivers/peripheral/gpio/cy_gpio.h **** /*******************************************************************************
 617:Generated_Source\PSoC6\pdl\drivers/peripheral/gpio/cy_gpio.h **** * Function Name: Cy_GPIO_SetHSIOM
 618:Generated_Source\PSoC6\pdl\drivers/peripheral/gpio/cy_gpio.h **** ****************************************************************************//**
 619:Generated_Source\PSoC6\pdl\drivers/peripheral/gpio/cy_gpio.h **** *
 620:Generated_Source\PSoC6\pdl\drivers/peripheral/gpio/cy_gpio.h **** * Configures the HSIOM connection to the pin.
 621:Generated_Source\PSoC6\pdl\drivers/peripheral/gpio/cy_gpio.h **** *
 622:Generated_Source\PSoC6\pdl\drivers/peripheral/gpio/cy_gpio.h **** * Connects the specified High-Speed Input Output Multiplexer (HSIOM) selection
 623:Generated_Source\PSoC6\pdl\drivers/peripheral/gpio/cy_gpio.h **** * to the pin.
 624:Generated_Source\PSoC6\pdl\drivers/peripheral/gpio/cy_gpio.h **** *
 625:Generated_Source\PSoC6\pdl\drivers/peripheral/gpio/cy_gpio.h **** * \param base
 626:Generated_Source\PSoC6\pdl\drivers/peripheral/gpio/cy_gpio.h **** * Pointer to the pin's port register base address
 627:Generated_Source\PSoC6\pdl\drivers/peripheral/gpio/cy_gpio.h **** *
 628:Generated_Source\PSoC6\pdl\drivers/peripheral/gpio/cy_gpio.h **** * \param pinNum
 629:Generated_Source\PSoC6\pdl\drivers/peripheral/gpio/cy_gpio.h **** * Position of the pin bit-field within the port register
 630:Generated_Source\PSoC6\pdl\drivers/peripheral/gpio/cy_gpio.h **** *
 631:Generated_Source\PSoC6\pdl\drivers/peripheral/gpio/cy_gpio.h **** * \param value
 632:Generated_Source\PSoC6\pdl\drivers/peripheral/gpio/cy_gpio.h **** * HSIOM input selection
 633:Generated_Source\PSoC6\pdl\drivers/peripheral/gpio/cy_gpio.h **** *
 634:Generated_Source\PSoC6\pdl\drivers/peripheral/gpio/cy_gpio.h **** * \note 
 635:Generated_Source\PSoC6\pdl\drivers/peripheral/gpio/cy_gpio.h **** * This function modifies a port register in a read-modify-write operation. It is
 636:Generated_Source\PSoC6\pdl\drivers/peripheral/gpio/cy_gpio.h **** * not thread safe as the resource is shared among multiple pins on a port.
 637:Generated_Source\PSoC6\pdl\drivers/peripheral/gpio/cy_gpio.h **** *
 638:Generated_Source\PSoC6\pdl\drivers/peripheral/gpio/cy_gpio.h **** * \funcusage
 639:Generated_Source\PSoC6\pdl\drivers/peripheral/gpio/cy_gpio.h **** * \snippet gpio/gpio_v1_10_sut_01.cydsn/main_cm4.c snippet_Cy_GPIO_SetHSIOM
 640:Generated_Source\PSoC6\pdl\drivers/peripheral/gpio/cy_gpio.h **** *
 641:Generated_Source\PSoC6\pdl\drivers/peripheral/gpio/cy_gpio.h **** *******************************************************************************/
 642:Generated_Source\PSoC6\pdl\drivers/peripheral/gpio/cy_gpio.h **** __STATIC_INLINE void Cy_GPIO_SetHSIOM(GPIO_PRT_Type* base, uint32_t pinNum, en_hsiom_sel_t value)
 643:Generated_Source\PSoC6\pdl\drivers/peripheral/gpio/cy_gpio.h **** {
 644:Generated_Source\PSoC6\pdl\drivers/peripheral/gpio/cy_gpio.h ****     uint32_t portNum;
 645:Generated_Source\PSoC6\pdl\drivers/peripheral/gpio/cy_gpio.h ****     uint32_t tempReg;
 646:Generated_Source\PSoC6\pdl\drivers/peripheral/gpio/cy_gpio.h ****     HSIOM_PRT_V1_Type* portAddrHSIOM;
 647:Generated_Source\PSoC6\pdl\drivers/peripheral/gpio/cy_gpio.h **** 
 648:Generated_Source\PSoC6\pdl\drivers/peripheral/gpio/cy_gpio.h ****     CY_ASSERT_L2(CY_GPIO_IS_PIN_VALID(pinNum));
 649:Generated_Source\PSoC6\pdl\drivers/peripheral/gpio/cy_gpio.h ****     CY_ASSERT_L2(CY_GPIO_IS_HSIOM_VALID(value));
 650:Generated_Source\PSoC6\pdl\drivers/peripheral/gpio/cy_gpio.h **** 
 651:Generated_Source\PSoC6\pdl\drivers/peripheral/gpio/cy_gpio.h ****     portNum = ((uint32_t)(base) - CY_GPIO_BASE) / GPIO_PRT_SECTION_SIZE;
 652:Generated_Source\PSoC6\pdl\drivers/peripheral/gpio/cy_gpio.h ****     portAddrHSIOM = (HSIOM_PRT_V1_Type*)(CY_HSIOM_BASE + (HSIOM_PRT_SECTION_SIZE * portNum));
 653:Generated_Source\PSoC6\pdl\drivers/peripheral/gpio/cy_gpio.h **** 
ARM GAS  C:\Users\Austina\AppData\Local\Temp\ccmbhoja.s 			page 40


 654:Generated_Source\PSoC6\pdl\drivers/peripheral/gpio/cy_gpio.h ****     if(pinNum < CY_GPIO_PRT_HALF)
 655:Generated_Source\PSoC6\pdl\drivers/peripheral/gpio/cy_gpio.h ****     {
 656:Generated_Source\PSoC6\pdl\drivers/peripheral/gpio/cy_gpio.h ****         tempReg = HSIOM_PRT_PORT_SEL0(portAddrHSIOM) & ~(CY_GPIO_HSIOM_MASK << (pinNum << CY_GPIO_H
 657:Generated_Source\PSoC6\pdl\drivers/peripheral/gpio/cy_gpio.h ****         HSIOM_PRT_PORT_SEL0(portAddrHSIOM) = tempReg | ((value & CY_GPIO_HSIOM_MASK) << (pinNum << 
 658:Generated_Source\PSoC6\pdl\drivers/peripheral/gpio/cy_gpio.h ****     }
 659:Generated_Source\PSoC6\pdl\drivers/peripheral/gpio/cy_gpio.h ****     else
 660:Generated_Source\PSoC6\pdl\drivers/peripheral/gpio/cy_gpio.h ****     {
 661:Generated_Source\PSoC6\pdl\drivers/peripheral/gpio/cy_gpio.h ****         pinNum -= CY_GPIO_PRT_HALF;
 662:Generated_Source\PSoC6\pdl\drivers/peripheral/gpio/cy_gpio.h ****         tempReg = HSIOM_PRT_PORT_SEL1(portAddrHSIOM) & ~(CY_GPIO_HSIOM_MASK << (pinNum << CY_GPIO_H
 663:Generated_Source\PSoC6\pdl\drivers/peripheral/gpio/cy_gpio.h ****         HSIOM_PRT_PORT_SEL1(portAddrHSIOM) = tempReg | ((value & CY_GPIO_HSIOM_MASK) << (pinNum << 
 664:Generated_Source\PSoC6\pdl\drivers/peripheral/gpio/cy_gpio.h ****     }
 665:Generated_Source\PSoC6\pdl\drivers/peripheral/gpio/cy_gpio.h **** }
 666:Generated_Source\PSoC6\pdl\drivers/peripheral/gpio/cy_gpio.h **** 
 667:Generated_Source\PSoC6\pdl\drivers/peripheral/gpio/cy_gpio.h **** 
 668:Generated_Source\PSoC6\pdl\drivers/peripheral/gpio/cy_gpio.h **** /*******************************************************************************
 669:Generated_Source\PSoC6\pdl\drivers/peripheral/gpio/cy_gpio.h **** * Function Name: Cy_GPIO_GetHSIOM
 670:Generated_Source\PSoC6\pdl\drivers/peripheral/gpio/cy_gpio.h **** ****************************************************************************//**
 671:Generated_Source\PSoC6\pdl\drivers/peripheral/gpio/cy_gpio.h **** *
 672:Generated_Source\PSoC6\pdl\drivers/peripheral/gpio/cy_gpio.h **** * Returns the current HSIOM multiplexer connection to the pin.
 673:Generated_Source\PSoC6\pdl\drivers/peripheral/gpio/cy_gpio.h **** *
 674:Generated_Source\PSoC6\pdl\drivers/peripheral/gpio/cy_gpio.h **** * \param base
 675:Generated_Source\PSoC6\pdl\drivers/peripheral/gpio/cy_gpio.h **** * Pointer to the pin's port register base address
 676:Generated_Source\PSoC6\pdl\drivers/peripheral/gpio/cy_gpio.h **** *
 677:Generated_Source\PSoC6\pdl\drivers/peripheral/gpio/cy_gpio.h **** * \param pinNum
 678:Generated_Source\PSoC6\pdl\drivers/peripheral/gpio/cy_gpio.h **** * Position of the pin bit-field within the port register
 679:Generated_Source\PSoC6\pdl\drivers/peripheral/gpio/cy_gpio.h **** *
 680:Generated_Source\PSoC6\pdl\drivers/peripheral/gpio/cy_gpio.h **** * \return
 681:Generated_Source\PSoC6\pdl\drivers/peripheral/gpio/cy_gpio.h **** * HSIOM input selection
 682:Generated_Source\PSoC6\pdl\drivers/peripheral/gpio/cy_gpio.h **** *
 683:Generated_Source\PSoC6\pdl\drivers/peripheral/gpio/cy_gpio.h **** * \funcusage
 684:Generated_Source\PSoC6\pdl\drivers/peripheral/gpio/cy_gpio.h **** * \snippet gpio/gpio_v1_10_sut_01.cydsn/main_cm4.c snippet_Cy_GPIO_SetHSIOM
 685:Generated_Source\PSoC6\pdl\drivers/peripheral/gpio/cy_gpio.h **** *
 686:Generated_Source\PSoC6\pdl\drivers/peripheral/gpio/cy_gpio.h **** *******************************************************************************/
 687:Generated_Source\PSoC6\pdl\drivers/peripheral/gpio/cy_gpio.h **** __STATIC_INLINE en_hsiom_sel_t Cy_GPIO_GetHSIOM(GPIO_PRT_Type* base, uint32_t pinNum)
 688:Generated_Source\PSoC6\pdl\drivers/peripheral/gpio/cy_gpio.h **** {
 689:Generated_Source\PSoC6\pdl\drivers/peripheral/gpio/cy_gpio.h ****     uint32_t returnValue;
 690:Generated_Source\PSoC6\pdl\drivers/peripheral/gpio/cy_gpio.h ****     uint32_t portNum;
 691:Generated_Source\PSoC6\pdl\drivers/peripheral/gpio/cy_gpio.h ****     HSIOM_PRT_V1_Type* portAddrHSIOM;
 692:Generated_Source\PSoC6\pdl\drivers/peripheral/gpio/cy_gpio.h ****     
 693:Generated_Source\PSoC6\pdl\drivers/peripheral/gpio/cy_gpio.h ****     CY_ASSERT_L2(CY_GPIO_IS_PIN_VALID(pinNum));
 694:Generated_Source\PSoC6\pdl\drivers/peripheral/gpio/cy_gpio.h **** 
 695:Generated_Source\PSoC6\pdl\drivers/peripheral/gpio/cy_gpio.h ****     portNum = ((uint32_t)(base) - CY_GPIO_BASE) / GPIO_PRT_SECTION_SIZE;
 696:Generated_Source\PSoC6\pdl\drivers/peripheral/gpio/cy_gpio.h ****     portAddrHSIOM = (HSIOM_PRT_V1_Type*)(CY_HSIOM_BASE + (HSIOM_PRT_SECTION_SIZE * portNum));
 697:Generated_Source\PSoC6\pdl\drivers/peripheral/gpio/cy_gpio.h **** 
 698:Generated_Source\PSoC6\pdl\drivers/peripheral/gpio/cy_gpio.h ****     if(pinNum < CY_GPIO_PRT_HALF)
 699:Generated_Source\PSoC6\pdl\drivers/peripheral/gpio/cy_gpio.h ****     {
 700:Generated_Source\PSoC6\pdl\drivers/peripheral/gpio/cy_gpio.h ****         returnValue = (HSIOM_PRT_PORT_SEL0(portAddrHSIOM) >> (pinNum << CY_GPIO_HSIOM_OFFSET)) & CY
 701:Generated_Source\PSoC6\pdl\drivers/peripheral/gpio/cy_gpio.h ****     }
 702:Generated_Source\PSoC6\pdl\drivers/peripheral/gpio/cy_gpio.h ****     else
 703:Generated_Source\PSoC6\pdl\drivers/peripheral/gpio/cy_gpio.h ****     {
 704:Generated_Source\PSoC6\pdl\drivers/peripheral/gpio/cy_gpio.h ****         pinNum -= CY_GPIO_PRT_HALF;
 705:Generated_Source\PSoC6\pdl\drivers/peripheral/gpio/cy_gpio.h ****         returnValue = (HSIOM_PRT_PORT_SEL1(portAddrHSIOM) >> (pinNum << CY_GPIO_HSIOM_OFFSET)) & CY
 706:Generated_Source\PSoC6\pdl\drivers/peripheral/gpio/cy_gpio.h ****     }
 707:Generated_Source\PSoC6\pdl\drivers/peripheral/gpio/cy_gpio.h **** 
 708:Generated_Source\PSoC6\pdl\drivers/peripheral/gpio/cy_gpio.h ****     return (en_hsiom_sel_t)returnValue;
 709:Generated_Source\PSoC6\pdl\drivers/peripheral/gpio/cy_gpio.h **** }
 710:Generated_Source\PSoC6\pdl\drivers/peripheral/gpio/cy_gpio.h **** 
ARM GAS  C:\Users\Austina\AppData\Local\Temp\ccmbhoja.s 			page 41


 711:Generated_Source\PSoC6\pdl\drivers/peripheral/gpio/cy_gpio.h **** 
 712:Generated_Source\PSoC6\pdl\drivers/peripheral/gpio/cy_gpio.h **** /*******************************************************************************
 713:Generated_Source\PSoC6\pdl\drivers/peripheral/gpio/cy_gpio.h **** * Function Name: Cy_GPIO_PortToAddr
 714:Generated_Source\PSoC6\pdl\drivers/peripheral/gpio/cy_gpio.h **** ****************************************************************************//**
 715:Generated_Source\PSoC6\pdl\drivers/peripheral/gpio/cy_gpio.h **** *
 716:Generated_Source\PSoC6\pdl\drivers/peripheral/gpio/cy_gpio.h **** * Retrieves the port address based on the given port number.
 717:Generated_Source\PSoC6\pdl\drivers/peripheral/gpio/cy_gpio.h **** *
 718:Generated_Source\PSoC6\pdl\drivers/peripheral/gpio/cy_gpio.h **** * This is a helper function to calculate the port base address when given a port
 719:Generated_Source\PSoC6\pdl\drivers/peripheral/gpio/cy_gpio.h **** * number. It is to be used when pin access needs to be calculated at runtime.
 720:Generated_Source\PSoC6\pdl\drivers/peripheral/gpio/cy_gpio.h **** *
 721:Generated_Source\PSoC6\pdl\drivers/peripheral/gpio/cy_gpio.h **** * \param portNum
 722:Generated_Source\PSoC6\pdl\drivers/peripheral/gpio/cy_gpio.h **** * Port number
 723:Generated_Source\PSoC6\pdl\drivers/peripheral/gpio/cy_gpio.h **** *
 724:Generated_Source\PSoC6\pdl\drivers/peripheral/gpio/cy_gpio.h **** * \return
 725:Generated_Source\PSoC6\pdl\drivers/peripheral/gpio/cy_gpio.h **** * Base address of the port register structure
 726:Generated_Source\PSoC6\pdl\drivers/peripheral/gpio/cy_gpio.h **** *
 727:Generated_Source\PSoC6\pdl\drivers/peripheral/gpio/cy_gpio.h **** * \funcusage
 728:Generated_Source\PSoC6\pdl\drivers/peripheral/gpio/cy_gpio.h **** * \snippet gpio/gpio_v1_10_sut_01.cydsn/main_cm4.c snippet_Cy_GPIO_PortToAddr
 729:Generated_Source\PSoC6\pdl\drivers/peripheral/gpio/cy_gpio.h **** *
 730:Generated_Source\PSoC6\pdl\drivers/peripheral/gpio/cy_gpio.h **** *******************************************************************************/
 731:Generated_Source\PSoC6\pdl\drivers/peripheral/gpio/cy_gpio.h **** __STATIC_INLINE GPIO_PRT_Type* Cy_GPIO_PortToAddr(uint32_t portNum)
 732:Generated_Source\PSoC6\pdl\drivers/peripheral/gpio/cy_gpio.h **** {
 733:Generated_Source\PSoC6\pdl\drivers/peripheral/gpio/cy_gpio.h ****     GPIO_PRT_Type* portBase;
 734:Generated_Source\PSoC6\pdl\drivers/peripheral/gpio/cy_gpio.h ****     
 735:Generated_Source\PSoC6\pdl\drivers/peripheral/gpio/cy_gpio.h ****     if(portNum < (uint32_t)IOSS_GPIO_GPIO_PORT_NR)
 736:Generated_Source\PSoC6\pdl\drivers/peripheral/gpio/cy_gpio.h ****     {
 737:Generated_Source\PSoC6\pdl\drivers/peripheral/gpio/cy_gpio.h ****         portBase = (GPIO_PRT_Type *)(CY_GPIO_BASE + (GPIO_PRT_SECTION_SIZE * portNum));
 738:Generated_Source\PSoC6\pdl\drivers/peripheral/gpio/cy_gpio.h ****     }
 739:Generated_Source\PSoC6\pdl\drivers/peripheral/gpio/cy_gpio.h ****     else
 740:Generated_Source\PSoC6\pdl\drivers/peripheral/gpio/cy_gpio.h ****     {
 741:Generated_Source\PSoC6\pdl\drivers/peripheral/gpio/cy_gpio.h ****         /* Error: Return default base address */
 742:Generated_Source\PSoC6\pdl\drivers/peripheral/gpio/cy_gpio.h ****         portBase = (GPIO_PRT_Type *)(CY_GPIO_BASE);
 743:Generated_Source\PSoC6\pdl\drivers/peripheral/gpio/cy_gpio.h ****     }
 744:Generated_Source\PSoC6\pdl\drivers/peripheral/gpio/cy_gpio.h **** 
 745:Generated_Source\PSoC6\pdl\drivers/peripheral/gpio/cy_gpio.h ****     return (portBase);
 746:Generated_Source\PSoC6\pdl\drivers/peripheral/gpio/cy_gpio.h **** }
 747:Generated_Source\PSoC6\pdl\drivers/peripheral/gpio/cy_gpio.h **** 
 748:Generated_Source\PSoC6\pdl\drivers/peripheral/gpio/cy_gpio.h **** /** \} group_gpio_functions_init */
 749:Generated_Source\PSoC6\pdl\drivers/peripheral/gpio/cy_gpio.h **** 
 750:Generated_Source\PSoC6\pdl\drivers/peripheral/gpio/cy_gpio.h **** /**
 751:Generated_Source\PSoC6\pdl\drivers/peripheral/gpio/cy_gpio.h **** * \addtogroup group_gpio_functions_gpio
 752:Generated_Source\PSoC6\pdl\drivers/peripheral/gpio/cy_gpio.h **** * \{
 753:Generated_Source\PSoC6\pdl\drivers/peripheral/gpio/cy_gpio.h **** */
 754:Generated_Source\PSoC6\pdl\drivers/peripheral/gpio/cy_gpio.h **** 
 755:Generated_Source\PSoC6\pdl\drivers/peripheral/gpio/cy_gpio.h **** /*******************************************************************************
 756:Generated_Source\PSoC6\pdl\drivers/peripheral/gpio/cy_gpio.h **** * Function Name: Cy_GPIO_Read
 757:Generated_Source\PSoC6\pdl\drivers/peripheral/gpio/cy_gpio.h **** ****************************************************************************//**
 758:Generated_Source\PSoC6\pdl\drivers/peripheral/gpio/cy_gpio.h **** *
 759:Generated_Source\PSoC6\pdl\drivers/peripheral/gpio/cy_gpio.h **** * Reads the current logic level on the input buffer of the pin.
 760:Generated_Source\PSoC6\pdl\drivers/peripheral/gpio/cy_gpio.h **** *
 761:Generated_Source\PSoC6\pdl\drivers/peripheral/gpio/cy_gpio.h **** * \param base
 762:Generated_Source\PSoC6\pdl\drivers/peripheral/gpio/cy_gpio.h **** * Pointer to the pin's port register base address
 763:Generated_Source\PSoC6\pdl\drivers/peripheral/gpio/cy_gpio.h **** *
 764:Generated_Source\PSoC6\pdl\drivers/peripheral/gpio/cy_gpio.h **** * \param pinNum
 765:Generated_Source\PSoC6\pdl\drivers/peripheral/gpio/cy_gpio.h **** * Position of the pin bit-field within the port register.
 766:Generated_Source\PSoC6\pdl\drivers/peripheral/gpio/cy_gpio.h **** * Bit position 8 is the routed pin through the port glitch filter.
 767:Generated_Source\PSoC6\pdl\drivers/peripheral/gpio/cy_gpio.h **** *
ARM GAS  C:\Users\Austina\AppData\Local\Temp\ccmbhoja.s 			page 42


 768:Generated_Source\PSoC6\pdl\drivers/peripheral/gpio/cy_gpio.h **** * \return
 769:Generated_Source\PSoC6\pdl\drivers/peripheral/gpio/cy_gpio.h **** * Logic level present on the pin
 770:Generated_Source\PSoC6\pdl\drivers/peripheral/gpio/cy_gpio.h **** *
 771:Generated_Source\PSoC6\pdl\drivers/peripheral/gpio/cy_gpio.h **** * \funcusage
 772:Generated_Source\PSoC6\pdl\drivers/peripheral/gpio/cy_gpio.h **** * \snippet gpio/gpio_v1_10_sut_01.cydsn/main_cm4.c snippet_Cy_GPIO_Read
 773:Generated_Source\PSoC6\pdl\drivers/peripheral/gpio/cy_gpio.h **** *
 774:Generated_Source\PSoC6\pdl\drivers/peripheral/gpio/cy_gpio.h **** *******************************************************************************/
 775:Generated_Source\PSoC6\pdl\drivers/peripheral/gpio/cy_gpio.h **** __STATIC_INLINE uint32_t Cy_GPIO_Read(GPIO_PRT_Type* base, uint32_t pinNum)
 776:Generated_Source\PSoC6\pdl\drivers/peripheral/gpio/cy_gpio.h **** {
 777:Generated_Source\PSoC6\pdl\drivers/peripheral/gpio/cy_gpio.h ****     CY_ASSERT_L2(CY_GPIO_IS_FILTER_PIN_VALID(pinNum));
 778:Generated_Source\PSoC6\pdl\drivers/peripheral/gpio/cy_gpio.h ****     
 779:Generated_Source\PSoC6\pdl\drivers/peripheral/gpio/cy_gpio.h ****     return (GPIO_PRT_IN(base) >> (pinNum)) & CY_GPIO_IN_MASK;
 780:Generated_Source\PSoC6\pdl\drivers/peripheral/gpio/cy_gpio.h **** }
 781:Generated_Source\PSoC6\pdl\drivers/peripheral/gpio/cy_gpio.h **** 
 782:Generated_Source\PSoC6\pdl\drivers/peripheral/gpio/cy_gpio.h **** 
 783:Generated_Source\PSoC6\pdl\drivers/peripheral/gpio/cy_gpio.h **** /*******************************************************************************
 784:Generated_Source\PSoC6\pdl\drivers/peripheral/gpio/cy_gpio.h **** * Function Name: Cy_GPIO_Write
 785:Generated_Source\PSoC6\pdl\drivers/peripheral/gpio/cy_gpio.h **** ****************************************************************************//**
 786:Generated_Source\PSoC6\pdl\drivers/peripheral/gpio/cy_gpio.h **** *
 787:Generated_Source\PSoC6\pdl\drivers/peripheral/gpio/cy_gpio.h **** * Write a logic 0 or logic 1 state to the output driver.
 788:Generated_Source\PSoC6\pdl\drivers/peripheral/gpio/cy_gpio.h **** *
 789:Generated_Source\PSoC6\pdl\drivers/peripheral/gpio/cy_gpio.h **** * This function should be used only for software driven pins. It does not have
 790:Generated_Source\PSoC6\pdl\drivers/peripheral/gpio/cy_gpio.h **** * any effect on peripheral driven pins.
 791:Generated_Source\PSoC6\pdl\drivers/peripheral/gpio/cy_gpio.h **** *
 792:Generated_Source\PSoC6\pdl\drivers/peripheral/gpio/cy_gpio.h **** * \param base
 793:Generated_Source\PSoC6\pdl\drivers/peripheral/gpio/cy_gpio.h **** * Pointer to the pin's port register base address
 794:Generated_Source\PSoC6\pdl\drivers/peripheral/gpio/cy_gpio.h **** *
 795:Generated_Source\PSoC6\pdl\drivers/peripheral/gpio/cy_gpio.h **** * \param pinNum
 796:Generated_Source\PSoC6\pdl\drivers/peripheral/gpio/cy_gpio.h **** * Position of the pin bit-field within the port register
 797:Generated_Source\PSoC6\pdl\drivers/peripheral/gpio/cy_gpio.h **** *
 798:Generated_Source\PSoC6\pdl\drivers/peripheral/gpio/cy_gpio.h **** * \param value
 799:Generated_Source\PSoC6\pdl\drivers/peripheral/gpio/cy_gpio.h **** * Logic level to drive out on the pin
 800:Generated_Source\PSoC6\pdl\drivers/peripheral/gpio/cy_gpio.h **** *
 801:Generated_Source\PSoC6\pdl\drivers/peripheral/gpio/cy_gpio.h **** * \funcusage
 802:Generated_Source\PSoC6\pdl\drivers/peripheral/gpio/cy_gpio.h **** * \snippet gpio/gpio_v1_10_sut_01.cydsn/main_cm4.c snippet_Cy_GPIO_Write
 803:Generated_Source\PSoC6\pdl\drivers/peripheral/gpio/cy_gpio.h **** *
 804:Generated_Source\PSoC6\pdl\drivers/peripheral/gpio/cy_gpio.h **** *******************************************************************************/
 805:Generated_Source\PSoC6\pdl\drivers/peripheral/gpio/cy_gpio.h **** __STATIC_INLINE void Cy_GPIO_Write(GPIO_PRT_Type* base, uint32_t pinNum, uint32_t value)
 806:Generated_Source\PSoC6\pdl\drivers/peripheral/gpio/cy_gpio.h **** {
 807:Generated_Source\PSoC6\pdl\drivers/peripheral/gpio/cy_gpio.h ****     CY_ASSERT_L2(CY_GPIO_IS_PIN_VALID(pinNum));
 808:Generated_Source\PSoC6\pdl\drivers/peripheral/gpio/cy_gpio.h ****     CY_ASSERT_L2(CY_GPIO_IS_VALUE_VALID(value));
 809:Generated_Source\PSoC6\pdl\drivers/peripheral/gpio/cy_gpio.h **** 
 810:Generated_Source\PSoC6\pdl\drivers/peripheral/gpio/cy_gpio.h ****     /* Thread-safe: Directly access the pin registers instead of base->OUT */
 811:Generated_Source\PSoC6\pdl\drivers/peripheral/gpio/cy_gpio.h ****     if(0UL == value)
 812:Generated_Source\PSoC6\pdl\drivers/peripheral/gpio/cy_gpio.h ****     {
 813:Generated_Source\PSoC6\pdl\drivers/peripheral/gpio/cy_gpio.h ****         GPIO_PRT_OUT_CLR(base) = CY_GPIO_OUT_MASK << pinNum;
 814:Generated_Source\PSoC6\pdl\drivers/peripheral/gpio/cy_gpio.h ****     }
 815:Generated_Source\PSoC6\pdl\drivers/peripheral/gpio/cy_gpio.h ****     else
 816:Generated_Source\PSoC6\pdl\drivers/peripheral/gpio/cy_gpio.h ****     {
 817:Generated_Source\PSoC6\pdl\drivers/peripheral/gpio/cy_gpio.h ****         GPIO_PRT_OUT_SET(base) = CY_GPIO_OUT_MASK << pinNum;
 818:Generated_Source\PSoC6\pdl\drivers/peripheral/gpio/cy_gpio.h ****     }
 819:Generated_Source\PSoC6\pdl\drivers/peripheral/gpio/cy_gpio.h **** }
 820:Generated_Source\PSoC6\pdl\drivers/peripheral/gpio/cy_gpio.h **** 
 821:Generated_Source\PSoC6\pdl\drivers/peripheral/gpio/cy_gpio.h **** 
 822:Generated_Source\PSoC6\pdl\drivers/peripheral/gpio/cy_gpio.h **** /*******************************************************************************
 823:Generated_Source\PSoC6\pdl\drivers/peripheral/gpio/cy_gpio.h **** * Function Name: Cy_GPIO_ReadOut
 824:Generated_Source\PSoC6\pdl\drivers/peripheral/gpio/cy_gpio.h **** ****************************************************************************//**
ARM GAS  C:\Users\Austina\AppData\Local\Temp\ccmbhoja.s 			page 43


 825:Generated_Source\PSoC6\pdl\drivers/peripheral/gpio/cy_gpio.h **** *
 826:Generated_Source\PSoC6\pdl\drivers/peripheral/gpio/cy_gpio.h **** * Reads the current logic level on the pin output driver.
 827:Generated_Source\PSoC6\pdl\drivers/peripheral/gpio/cy_gpio.h **** *
 828:Generated_Source\PSoC6\pdl\drivers/peripheral/gpio/cy_gpio.h **** * \param base
 829:Generated_Source\PSoC6\pdl\drivers/peripheral/gpio/cy_gpio.h **** * Pointer to the pin's port register base address
 830:Generated_Source\PSoC6\pdl\drivers/peripheral/gpio/cy_gpio.h **** *
 831:Generated_Source\PSoC6\pdl\drivers/peripheral/gpio/cy_gpio.h **** * \param pinNum
 832:Generated_Source\PSoC6\pdl\drivers/peripheral/gpio/cy_gpio.h **** * Position of the pin bit-field within the port register
 833:Generated_Source\PSoC6\pdl\drivers/peripheral/gpio/cy_gpio.h **** *
 834:Generated_Source\PSoC6\pdl\drivers/peripheral/gpio/cy_gpio.h **** * \return
 835:Generated_Source\PSoC6\pdl\drivers/peripheral/gpio/cy_gpio.h **** * Logic level on the pin output driver
 836:Generated_Source\PSoC6\pdl\drivers/peripheral/gpio/cy_gpio.h **** *
 837:Generated_Source\PSoC6\pdl\drivers/peripheral/gpio/cy_gpio.h **** * \funcusage
 838:Generated_Source\PSoC6\pdl\drivers/peripheral/gpio/cy_gpio.h **** * \snippet gpio/gpio_v1_10_sut_01.cydsn/main_cm4.c snippet_Cy_GPIO_ReadOut
 839:Generated_Source\PSoC6\pdl\drivers/peripheral/gpio/cy_gpio.h **** *
 840:Generated_Source\PSoC6\pdl\drivers/peripheral/gpio/cy_gpio.h **** *******************************************************************************/
 841:Generated_Source\PSoC6\pdl\drivers/peripheral/gpio/cy_gpio.h **** __STATIC_INLINE uint32_t Cy_GPIO_ReadOut(GPIO_PRT_Type* base, uint32_t pinNum)
 842:Generated_Source\PSoC6\pdl\drivers/peripheral/gpio/cy_gpio.h **** {
 843:Generated_Source\PSoC6\pdl\drivers/peripheral/gpio/cy_gpio.h ****     CY_ASSERT_L2(CY_GPIO_IS_PIN_VALID(pinNum));
 844:Generated_Source\PSoC6\pdl\drivers/peripheral/gpio/cy_gpio.h **** 
 845:Generated_Source\PSoC6\pdl\drivers/peripheral/gpio/cy_gpio.h ****     return (GPIO_PRT_OUT(base) >> pinNum) & CY_GPIO_OUT_MASK;
 846:Generated_Source\PSoC6\pdl\drivers/peripheral/gpio/cy_gpio.h **** }
 847:Generated_Source\PSoC6\pdl\drivers/peripheral/gpio/cy_gpio.h **** 
 848:Generated_Source\PSoC6\pdl\drivers/peripheral/gpio/cy_gpio.h **** 
 849:Generated_Source\PSoC6\pdl\drivers/peripheral/gpio/cy_gpio.h **** /*******************************************************************************
 850:Generated_Source\PSoC6\pdl\drivers/peripheral/gpio/cy_gpio.h **** * Function Name: Cy_GPIO_Set
 851:Generated_Source\PSoC6\pdl\drivers/peripheral/gpio/cy_gpio.h **** ****************************************************************************//**
 852:Generated_Source\PSoC6\pdl\drivers/peripheral/gpio/cy_gpio.h **** *
 853:Generated_Source\PSoC6\pdl\drivers/peripheral/gpio/cy_gpio.h **** * Set a pin output to logic state high.
 854:Generated_Source\PSoC6\pdl\drivers/peripheral/gpio/cy_gpio.h **** *
 855:Generated_Source\PSoC6\pdl\drivers/peripheral/gpio/cy_gpio.h **** * This function should be used only for software driven pins. It does not have
 856:Generated_Source\PSoC6\pdl\drivers/peripheral/gpio/cy_gpio.h **** * any effect on peripheral driven pins.
 857:Generated_Source\PSoC6\pdl\drivers/peripheral/gpio/cy_gpio.h **** *
 858:Generated_Source\PSoC6\pdl\drivers/peripheral/gpio/cy_gpio.h **** * \param base
 859:Generated_Source\PSoC6\pdl\drivers/peripheral/gpio/cy_gpio.h **** * Pointer to the pin's port register base address
 860:Generated_Source\PSoC6\pdl\drivers/peripheral/gpio/cy_gpio.h **** *
 861:Generated_Source\PSoC6\pdl\drivers/peripheral/gpio/cy_gpio.h **** * \param pinNum
 862:Generated_Source\PSoC6\pdl\drivers/peripheral/gpio/cy_gpio.h **** * Position of the pin bit-field within the port register
 863:Generated_Source\PSoC6\pdl\drivers/peripheral/gpio/cy_gpio.h **** *
 864:Generated_Source\PSoC6\pdl\drivers/peripheral/gpio/cy_gpio.h **** * \funcusage
 865:Generated_Source\PSoC6\pdl\drivers/peripheral/gpio/cy_gpio.h **** * \snippet gpio/gpio_v1_10_sut_01.cydsn/main_cm4.c snippet_Cy_GPIO_Set
 866:Generated_Source\PSoC6\pdl\drivers/peripheral/gpio/cy_gpio.h **** *
 867:Generated_Source\PSoC6\pdl\drivers/peripheral/gpio/cy_gpio.h **** *******************************************************************************/
 868:Generated_Source\PSoC6\pdl\drivers/peripheral/gpio/cy_gpio.h **** __STATIC_INLINE void Cy_GPIO_Set(GPIO_PRT_Type* base, uint32_t pinNum)
 869:Generated_Source\PSoC6\pdl\drivers/peripheral/gpio/cy_gpio.h **** {
 870:Generated_Source\PSoC6\pdl\drivers/peripheral/gpio/cy_gpio.h ****     CY_ASSERT_L2(CY_GPIO_IS_PIN_VALID(pinNum));
 871:Generated_Source\PSoC6\pdl\drivers/peripheral/gpio/cy_gpio.h ****     
 872:Generated_Source\PSoC6\pdl\drivers/peripheral/gpio/cy_gpio.h ****     GPIO_PRT_OUT_SET(base) = CY_GPIO_OUT_MASK << pinNum;
 446              		.loc 3 872 0
 447 007e 0222     		movs	r2, #2
 448 0080 424B     		ldr	r3, .L42+24
 449 0082 9A60     		str	r2, [r3, #8]
 450              	.LVL45:
 451              	.LBE26:
 452              	.LBE25:
 453              	.LBB27:
 454              	.LBB28:
ARM GAS  C:\Users\Austina\AppData\Local\Temp\ccmbhoja.s 			page 44


 873:Generated_Source\PSoC6\pdl\drivers/peripheral/gpio/cy_gpio.h **** }
 874:Generated_Source\PSoC6\pdl\drivers/peripheral/gpio/cy_gpio.h **** 
 875:Generated_Source\PSoC6\pdl\drivers/peripheral/gpio/cy_gpio.h **** 
 876:Generated_Source\PSoC6\pdl\drivers/peripheral/gpio/cy_gpio.h **** /*******************************************************************************
 877:Generated_Source\PSoC6\pdl\drivers/peripheral/gpio/cy_gpio.h **** * Function Name: Cy_GPIO_Clr
 878:Generated_Source\PSoC6\pdl\drivers/peripheral/gpio/cy_gpio.h **** ****************************************************************************//**
 879:Generated_Source\PSoC6\pdl\drivers/peripheral/gpio/cy_gpio.h **** *
 880:Generated_Source\PSoC6\pdl\drivers/peripheral/gpio/cy_gpio.h **** * Set a pin output to logic state Low.
 881:Generated_Source\PSoC6\pdl\drivers/peripheral/gpio/cy_gpio.h **** *
 882:Generated_Source\PSoC6\pdl\drivers/peripheral/gpio/cy_gpio.h **** * This function should be used only for software driven pins. It does not have
 883:Generated_Source\PSoC6\pdl\drivers/peripheral/gpio/cy_gpio.h **** * any effect on peripheral driven pins.
 884:Generated_Source\PSoC6\pdl\drivers/peripheral/gpio/cy_gpio.h **** *
 885:Generated_Source\PSoC6\pdl\drivers/peripheral/gpio/cy_gpio.h **** * \param base
 886:Generated_Source\PSoC6\pdl\drivers/peripheral/gpio/cy_gpio.h **** * Pointer to the pin's port register base address
 887:Generated_Source\PSoC6\pdl\drivers/peripheral/gpio/cy_gpio.h **** *
 888:Generated_Source\PSoC6\pdl\drivers/peripheral/gpio/cy_gpio.h **** * \param pinNum
 889:Generated_Source\PSoC6\pdl\drivers/peripheral/gpio/cy_gpio.h **** * Position of the pin bit-field within the port register
 890:Generated_Source\PSoC6\pdl\drivers/peripheral/gpio/cy_gpio.h **** *
 891:Generated_Source\PSoC6\pdl\drivers/peripheral/gpio/cy_gpio.h **** * \funcusage
 892:Generated_Source\PSoC6\pdl\drivers/peripheral/gpio/cy_gpio.h **** * \snippet gpio/gpio_v1_10_sut_01.cydsn/main_cm4.c snippet_Cy_GPIO_Clr
 893:Generated_Source\PSoC6\pdl\drivers/peripheral/gpio/cy_gpio.h **** *
 894:Generated_Source\PSoC6\pdl\drivers/peripheral/gpio/cy_gpio.h **** *******************************************************************************/
 895:Generated_Source\PSoC6\pdl\drivers/peripheral/gpio/cy_gpio.h **** __STATIC_INLINE void Cy_GPIO_Clr(GPIO_PRT_Type* base, uint32_t pinNum)
 896:Generated_Source\PSoC6\pdl\drivers/peripheral/gpio/cy_gpio.h **** {
 897:Generated_Source\PSoC6\pdl\drivers/peripheral/gpio/cy_gpio.h ****     CY_ASSERT_L2(CY_GPIO_IS_PIN_VALID(pinNum));
 898:Generated_Source\PSoC6\pdl\drivers/peripheral/gpio/cy_gpio.h ****     
 899:Generated_Source\PSoC6\pdl\drivers/peripheral/gpio/cy_gpio.h ****     GPIO_PRT_OUT_CLR(base) = CY_GPIO_OUT_MASK << pinNum;
 455              		.loc 3 899 0
 456 0084 0822     		movs	r2, #8
 457 0086 803B     		subs	r3, r3, #128
 458 0088 5A60     		str	r2, [r3, #4]
 459 008a 71E0     		b	.L32
 460              	.LVL46:
 461              	.L36:
 462              	.LBE28:
 463              	.LBE27:
 134:BLETask.c     ****             cy_stc_ble_gapc_adv_report_param_t *scanProgressParam = (cy_stc_ble_gapc_adv_report_par
 464              		.loc 1 134 0
 465 008c 3A48     		ldr	r0, .L42+4
 466              	.LVL47:
 467 008e FFF7FEFF 		bl	printf
 468              	.LVL48:
 469 0092 0D20     		movs	r0, #13
 470 0094 FFF7FEFF 		bl	putchar
 471              	.LVL49:
 145:BLETask.c     ****             
 472              		.loc 1 145 0
 473 0098 217A     		ldrb	r1, [r4, #8]	@ zero_extendqisi2
 474 009a E068     		ldr	r0, [r4, #12]
 475 009c FFF7FEFF 		bl	findAdvInfo
 476              	.LVL50:
 147:BLETask.c     ****                  && (memcmp(currentAdvInfo.serviceUUID,cy_ble_customCServ[CY_BLE_CUSTOMC_MOTOR_SERV
 477              		.loc 1 147 0
 478 00a0 3B4B     		ldr	r3, .L42+28
 479 00a2 1A7B     		ldrb	r2, [r3, #12]	@ zero_extendqisi2
 480 00a4 002A     		cmp	r2, #0
 481 00a6 63D0     		beq	.L32
ARM GAS  C:\Users\Austina\AppData\Local\Temp\ccmbhoja.s 			page 45


 148:BLETask.c     ****                   ,currentAdvInfo.servUUID_len) == 0))
 482              		.loc 1 148 0
 483 00a8 3A4B     		ldr	r3, .L42+32
 484 00aa 5968     		ldr	r1, [r3, #4]
 485 00ac 384B     		ldr	r3, .L42+28
 486 00ae 5868     		ldr	r0, [r3, #4]
 487 00b0 FFF7FEFF 		bl	memcmp
 488              	.LVL51:
 489 00b4 0028     		cmp	r0, #0
 490 00b6 5BD1     		bne	.L32
 491              	.LBB29:
 154:BLETask.c     ****                 cy_stc_ble_bd_addr_t connectAddr;
 492              		.loc 1 154 0
 493 00b8 2F48     		ldr	r0, .L42+4
 494 00ba FFF7FEFF 		bl	printf
 495              	.LVL52:
 496 00be 344B     		ldr	r3, .L42+28
 497 00c0 1A68     		ldr	r2, [r3]
 498 00c2 9968     		ldr	r1, [r3, #8]
 499 00c4 3448     		ldr	r0, .L42+36
 500 00c6 FFF7FEFF 		bl	printf
 501              	.LVL53:
 502 00ca 2D48     		ldr	r0, .L42+12
 503 00cc FFF7FEFF 		bl	puts
 504              	.LVL54:
 156:BLETask.c     ****                 connectAddr.type = scanProgressParam->peerAddrType;
 505              		.loc 1 156 0
 506 00d0 6368     		ldr	r3, [r4, #4]
 507 00d2 1868     		ldr	r0, [r3]	@ unaligned
 508 00d4 0090     		str	r0, [sp]	@ unaligned
 509 00d6 9B88     		ldrh	r3, [r3, #4]	@ unaligned
 510 00d8 ADF80430 		strh	r3, [sp, #4]	@ unaligned
 157:BLETask.c     ****                 Cy_BLE_GAPC_ConnectDevice(&connectAddr,0);
 511              		.loc 1 157 0
 512 00dc 6378     		ldrb	r3, [r4, #1]	@ zero_extendqisi2
 513 00de 8DF80630 		strb	r3, [sp, #6]
 158:BLETask.c     ****                 Cy_BLE_GAPC_StopScan();
 514              		.loc 1 158 0
 515 00e2 0021     		movs	r1, #0
 516 00e4 6846     		mov	r0, sp
 517 00e6 FFF7FEFF 		bl	Cy_BLE_GAPC_ConnectDevice
 518              	.LVL55:
 159:BLETask.c     ****             }
 519              		.loc 1 159 0
 520 00ea FFF7FEFF 		bl	Cy_BLE_GAPC_StopScan
 521              	.LVL56:
 522 00ee 3FE0     		b	.L32
 523              	.LVL57:
 524              	.L38:
 525              	.LBE29:
 526              	.LBB30:
 527              	.LBB31:
 872:Generated_Source\PSoC6\pdl\drivers/peripheral/gpio/cy_gpio.h **** }
 528              		.loc 3 872 0
 529 00f0 0222     		movs	r2, #2
 530 00f2 264B     		ldr	r3, .L42+24
 531 00f4 9A60     		str	r2, [r3, #8]
ARM GAS  C:\Users\Austina\AppData\Local\Temp\ccmbhoja.s 			page 46


 532              	.LVL58:
 533              	.LBE31:
 534              	.LBE30:
 535              	.LBB32:
 536              	.LBB33:
 537              		.loc 3 899 0
 538 00f6 0822     		movs	r2, #8
 539 00f8 803B     		subs	r3, r3, #128
 540 00fa 5A60     		str	r2, [r3, #4]
 541              	.LVL59:
 542              	.LBE33:
 543              	.LBE32:
 166:BLETask.c     ****             ble_print("Disconnected");
 544              		.loc 1 166 0
 545 00fc 0022     		movs	r2, #0
 546 00fe 274B     		ldr	r3, .L42+40
 547 0100 1A70     		strb	r2, [r3]
 167:BLETask.c     ****         break;
 548              		.loc 1 167 0
 549 0102 1D48     		ldr	r0, .L42+4
 550              	.LVL60:
 551 0104 FFF7FEFF 		bl	printf
 552              	.LVL61:
 553 0108 2548     		ldr	r0, .L42+44
 554 010a FFF7FEFF 		bl	printf
 555              	.LVL62:
 556 010e 1C48     		ldr	r0, .L42+12
 557 0110 FFF7FEFF 		bl	puts
 558              	.LVL63:
 168:BLETask.c     ****         case CY_BLE_EVT_GATT_CONNECT_IND:
 559              		.loc 1 168 0
 560 0114 2CE0     		b	.L32
 561              	.LVL64:
 562              	.L39:
 563              	.LBB34:
 564              	.LBB35:
 565              		.loc 3 899 0
 566 0116 0222     		movs	r2, #2
 567 0118 1C4B     		ldr	r3, .L42+24
 568 011a 5A60     		str	r2, [r3, #4]
 569              	.LVL65:
 570              	.LBE35:
 571              	.LBE34:
 572              	.LBB36:
 573              	.LBB37:
 872:Generated_Source\PSoC6\pdl\drivers/peripheral/gpio/cy_gpio.h **** }
 574              		.loc 3 872 0
 575 011c 0822     		movs	r2, #8
 576 011e 803B     		subs	r3, r3, #128
 577 0120 9A60     		str	r2, [r3, #8]
 578              	.LVL66:
 579              	.LBE37:
 580              	.LBE36:
 172:BLETask.c     ****             bleConnectionStatus = true;
 581              		.loc 1 172 0
 582 0122 1548     		ldr	r0, .L42+4
 583              	.LVL67:
ARM GAS  C:\Users\Austina\AppData\Local\Temp\ccmbhoja.s 			page 47


 584 0124 FFF7FEFF 		bl	printf
 585              	.LVL68:
 586 0128 1E48     		ldr	r0, .L42+48
 587 012a FFF7FEFF 		bl	printf
 588              	.LVL69:
 589 012e 1448     		ldr	r0, .L42+12
 590 0130 FFF7FEFF 		bl	puts
 591              	.LVL70:
 173:BLETask.c     ****             Cy_BLE_GATTC_StartDiscovery(cy_ble_connHandle[0]);
 592              		.loc 1 173 0
 593 0134 0122     		movs	r2, #1
 594 0136 194B     		ldr	r3, .L42+40
 595 0138 1A70     		strb	r2, [r3]
 174:BLETask.c     ****         break;
 596              		.loc 1 174 0
 597 013a 1B4B     		ldr	r3, .L42+52
 598 013c 1A78     		ldrb	r2, [r3]	@ zero_extendqisi2
 599 013e 5878     		ldrb	r0, [r3, #1]	@ zero_extendqisi2
 600 0140 42EA0020 		orr	r0, r2, r0, lsl #8
 601 0144 FFF7FEFF 		bl	Cy_BLE_GATTC_StartDiscovery
 602              	.LVL71:
 175:BLETask.c     ****         
 603              		.loc 1 175 0
 604 0148 12E0     		b	.L32
 605              	.LVL72:
 606              	.L40:
 178:BLETask.c     ****         break;
 607              		.loc 1 178 0
 608 014a 0B48     		ldr	r0, .L42+4
 609              	.LVL73:
 610 014c FFF7FEFF 		bl	printf
 611              	.LVL74:
 612 0150 1648     		ldr	r0, .L42+56
 613 0152 FFF7FEFF 		bl	printf
 614              	.LVL75:
 615 0156 0A48     		ldr	r0, .L42+12
 616 0158 FFF7FEFF 		bl	puts
 617              	.LVL76:
 179:BLETask.c     ****             
 618              		.loc 1 179 0
 619 015c 08E0     		b	.L32
 620              	.LVL77:
 621              	.L34:
 182:BLETask.c     ****         break;
 622              		.loc 1 182 0
 623 015e 0648     		ldr	r0, .L42+4
 624              	.LVL78:
 625 0160 FFF7FEFF 		bl	printf
 626              	.LVL79:
 627 0164 1248     		ldr	r0, .L42+60
 628 0166 FFF7FEFF 		bl	printf
 629              	.LVL80:
 630 016a 0548     		ldr	r0, .L42+12
 631 016c FFF7FEFF 		bl	puts
 632              	.LVL81:
 633              	.L32:
 634              	.LBE24:
ARM GAS  C:\Users\Austina\AppData\Local\Temp\ccmbhoja.s 			page 48


 194:BLETask.c     **** 
 635              		.loc 1 194 0
 636 0170 03B0     		add	sp, sp, #12
 637              		.cfi_def_cfa_offset 12
 638              		@ sp needed
 639 0172 30BD     		pop	{r4, r5, pc}
 640              	.L43:
 641              		.align	2
 642              	.L42:
 643 0174 13000100 		.word	65555
 644 0178 00000000 		.word	.LC0
 645 017c 40000000 		.word	.LC4
 646 0180 24000000 		.word	.LC2
 647 0184 6C000000 		.word	.LC5
 648 0188 B4000000 		.word	.LC6
 649 018c 80003240 		.word	1077018752
 650 0190 00000000 		.word	currentAdvInfo
 651 0194 00000000 		.word	cy_ble_customCServ
 652 0198 C4000000 		.word	.LC7
 653 019c 00000000 		.word	.LANCHOR0
 654 01a0 D4000000 		.word	.LC8
 655 01a4 E4000000 		.word	.LC9
 656 01a8 00000000 		.word	cy_ble_connHandle
 657 01ac 14010000 		.word	.LC10
 658 01b0 28010000 		.word	.LC11
 659              		.cfi_endproc
 660              	.LFE533:
 661              		.size	genericEventHandler, .-genericEventHandler
 662              		.section	.text.bleTask,"ax",%progbits
 663              		.align	2
 664              		.global	bleTask
 665              		.thumb
 666              		.thumb_func
 667              		.type	bleTask, %function
 668              	bleTask:
 669              	.LFB535:
 207:BLETask.c     **** 
 208:BLETask.c     **** void bleTask(void * arg)
 209:BLETask.c     **** {
 670              		.loc 1 209 0
 671              		.cfi_startproc
 672              		@ Volatile: function does not return.
 673              		@ args = 0, pretend = 0, frame = 0
 674              		@ frame_needed = 0, uses_anonymous_args = 0
 675              	.LVL82:
 676 0000 08B5     		push	{r3, lr}
 677              		.cfi_def_cfa_offset 8
 678              		.cfi_offset 3, -8
 679              		.cfi_offset 14, -4
 210:BLETask.c     ****     (void)arg;
 211:BLETask.c     ****     
 212:BLETask.c     ****     ble_print("BLE Task started");
 680              		.loc 1 212 0
 681 0002 1348     		ldr	r0, .L49
 682              	.LVL83:
 683 0004 FFF7FEFF 		bl	printf
 684              	.LVL84:
ARM GAS  C:\Users\Austina\AppData\Local\Temp\ccmbhoja.s 			page 49


 685 0008 1248     		ldr	r0, .L49+4
 686 000a FFF7FEFF 		bl	printf
 687              	.LVL85:
 688 000e 1248     		ldr	r0, .L49+8
 689 0010 FFF7FEFF 		bl	puts
 690              	.LVL86:
 213:BLETask.c     ****     bleSemaphore = xSemaphoreCreateBinary();
 691              		.loc 1 213 0
 692 0014 0322     		movs	r2, #3
 693 0016 0021     		movs	r1, #0
 694 0018 0120     		movs	r0, #1
 695 001a FFF7FEFF 		bl	xQueueGenericCreate
 696              	.LVL87:
 697 001e 0F4B     		ldr	r3, .L49+12
 698 0020 1860     		str	r0, [r3]
 214:BLETask.c     ****     
 215:BLETask.c     ****     //register the generic handler
 216:BLETask.c     ****     Cy_BLE_Start(genericEventHandler);
 699              		.loc 1 216 0
 700 0022 0F48     		ldr	r0, .L49+16
 701 0024 FFF7FEFF 		bl	Cy_BLE_Start
 702              	.LVL88:
 217:BLETask.c     ****     
 218:BLETask.c     ****     //process all ble initialization processes until the ble state is set to on
 219:BLETask.c     ****     while(Cy_BLE_GetState() != CY_BLE_STATE_ON)
 703              		.loc 1 219 0
 704 0028 01E0     		b	.L45
 705              	.L46:
 220:BLETask.c     ****     {
 221:BLETask.c     ****         Cy_BLE_ProcessEvents();
 706              		.loc 1 221 0
 707 002a FFF7FEFF 		bl	Cy_BLE_ProcessEvents
 708              	.LVL89:
 709              	.L45:
 219:BLETask.c     ****     {
 710              		.loc 1 219 0
 711 002e 0D4B     		ldr	r3, .L49+20
 712 0030 1B78     		ldrb	r3, [r3]	@ zero_extendqisi2
 713 0032 022B     		cmp	r3, #2
 714 0034 F9D1     		bne	.L46
 222:BLETask.c     ****     }
 223:BLETask.c     ****     
 224:BLETask.c     ****     Cy_BLE_RegisterAppHostCallback(bleInterruptNotify);
 715              		.loc 1 224 0
 716 0036 0C48     		ldr	r0, .L49+24
 717 0038 FFF7FEFF 		bl	Cy_BLE_RegisterAppHostCallback
 718              	.LVL90:
 719              	.L47:
 225:BLETask.c     ****     
 226:BLETask.c     ****     for(;;)
 227:BLETask.c     ****     {
 228:BLETask.c     ****         xSemaphoreTake(bleSemaphore,portMAX_DELAY);
 720              		.loc 1 228 0 discriminator 1
 721 003c 4FF0FF31 		mov	r1, #-1
 722 0040 064B     		ldr	r3, .L49+12
 723 0042 1868     		ldr	r0, [r3]
 724 0044 FFF7FEFF 		bl	xQueueSemaphoreTake
ARM GAS  C:\Users\Austina\AppData\Local\Temp\ccmbhoja.s 			page 50


 725              	.LVL91:
 229:BLETask.c     ****         Cy_BLE_ProcessEvents();
 726              		.loc 1 229 0 discriminator 1
 727 0048 FFF7FEFF 		bl	Cy_BLE_ProcessEvents
 728              	.LVL92:
 729 004c F6E7     		b	.L47
 730              	.L50:
 731 004e 00BF     		.align	2
 732              	.L49:
 733 0050 00000000 		.word	.LC0
 734 0054 40010000 		.word	.LC12
 735 0058 24000000 		.word	.LC2
 736 005c 00000000 		.word	bleSemaphore
 737 0060 00000000 		.word	genericEventHandler
 738 0064 00000000 		.word	cy_ble_state
 739 0068 00000000 		.word	bleInterruptNotify
 740              		.cfi_endproc
 741              	.LFE535:
 742              		.size	bleTask, .-bleTask
 743              		.comm	currentAdvInfo,16,4
 744              		.global	motorToControl
 745              		.comm	bleSemaphore,4,4
 746              		.data
 747              		.align	2
 748              		.set	.LANCHOR1,. + 0
 749              		.type	motorToControl, %object
 750              		.size	motorToControl, 24
 751              	motorToControl:
 752 0000 00       		.byte	0
 753 0001 00       		.byte	0
 754 0002 00       		.byte	0
 755 0003 00       		.byte	0
 756 0004 01       		.byte	1
 757 0005 02       		.byte	2
 758 0006 01       		.byte	1
 759 0007 00       		.byte	0
 760 0008 01       		.byte	1
 761 0009 01       		.byte	1
 762 000a 01       		.byte	1
 763 000b 03       		.byte	3
 764 000c 02       		.byte	2
 765 000d 00       		.byte	0
 766 000e 04       		.byte	4
 767 000f 02       		.byte	2
 768 0010 01       		.byte	1
 769 0011 06       		.byte	6
 770 0012 03       		.byte	3
 771 0013 00       		.byte	0
 772 0014 05       		.byte	5
 773 0015 03       		.byte	3
 774 0016 01       		.byte	1
 775 0017 07       		.byte	7
 776              		.section	.rodata.str1.4,"aMS",%progbits,1
 777              		.align	2
 778              	.LC0:
 779 0000 5B20424C 		.ascii	"[ BLE CENTRAL ] : \000"
 779      45204345 
ARM GAS  C:\Users\Austina\AppData\Local\Temp\ccmbhoja.s 			page 51


 779      4E545241 
 779      4C205D20 
 779      3A2000
 780 0013 00       		.space	1
 781              	.LC1:
 782 0014 4E6F7420 		.ascii	"Not connected\000"
 782      636F6E6E 
 782      65637465 
 782      6400
 783 0022 0000     		.space	2
 784              	.LC2:
 785 0024 0D00     		.ascii	"\015\000"
 786 0026 0000     		.space	2
 787              	.LC3:
 788 0028 424C4520 		.ascii	"BLE GATTC write error\000"
 788      47415454 
 788      43207772 
 788      69746520 
 788      6572726F 
 789 003e 0000     		.space	2
 790              	.LC4:
 791 0040 4D616B65 		.ascii	"Make sure the peripheral BLE device is on\000"
 791      20737572 
 791      65207468 
 791      65207065 
 791      72697068 
 792 006a 0000     		.space	2
 793              	.LC5:
 794 006c 4F6E6C79 		.ascii	"Only once connected to the peripheral the data aqui"
 794      206F6E63 
 794      6520636F 
 794      6E6E6563 
 794      74656420 
 795 009f 73697469 		.ascii	"sition will begin.\000"
 795      6F6E2077 
 795      696C6C20 
 795      62656769 
 795      6E2E00
 796 00b2 0000     		.space	2
 797              	.LC6:
 798 00b4 53746172 		.ascii	"Starting Scan\000"
 798      74696E67 
 798      20536361 
 798      6E00
 799 00c2 0000     		.space	2
 800              	.LC7:
 801 00c4 20446576 		.ascii	" Device %.*s\000"
 801      69636520 
 801      252E2A73 
 801      00
 802 00d1 000000   		.space	3
 803              	.LC8:
 804 00d4 44697363 		.ascii	"Disconnected\000"
 804      6F6E6E65 
 804      63746564 
 804      00
 805 00e1 000000   		.space	3
ARM GAS  C:\Users\Austina\AppData\Local\Temp\ccmbhoja.s 			page 52


 806              	.LC9:
 807 00e4 4D616465 		.ascii	"Made a connection, starting service discovery\000"
 807      20612063 
 807      6F6E6E65 
 807      6374696F 
 807      6E2C2073 
 808 0112 0000     		.space	2
 809              	.LC10:
 810 0114 44697363 		.ascii	"Discovery Complete\000"
 810      6F766572 
 810      7920436F 
 810      6D706C65 
 810      746500
 811 0127 00       		.space	1
 812              	.LC11:
 813 0128 47415454 		.ascii	"GATTC Error Response\000"
 813      43204572 
 813      726F7220 
 813      52657370 
 813      6F6E7365 
 814 013d 000000   		.space	3
 815              	.LC12:
 816 0140 424C4520 		.ascii	"BLE Task started\000"
 816      5461736B 
 816      20737461 
 816      72746564 
 816      00
 817              		.bss
 818              		.set	.LANCHOR0,. + 0
 819              		.type	bleConnectionStatus, %object
 820              		.size	bleConnectionStatus, 1
 821              	bleConnectionStatus:
 822 0000 00       		.space	1
 823              		.text
 824              	.Letext0:
 825              		.file 4 "c:\\program files (x86)\\cypress\\psoc creator\\4.4\\psoc creator\\import\\gnu\\arm\\5.4.
 826              		.file 5 "c:\\program files (x86)\\cypress\\psoc creator\\4.4\\psoc creator\\import\\gnu\\arm\\5.4.
 827              		.file 6 "Generated_Source\\PSoC6\\pdl\\devices/psoc6/include/ip/cyip_gpio.h"
 828              		.file 7 "Generated_Source\\PSoC6\\pdl\\devices/psoc6/include/psoc6_01_config.h"
 829              		.file 8 "Generated_Source\\PSoC6\\pdl\\drivers/peripheral/device/cy_device.h"
 830              		.file 9 "Generated_Source\\PSoC6\\pdl\\drivers/peripheral/syslib/cy_syslib.h"
 831              		.file 10 "Generated_Source\\PSoC6\\pdl\\drivers/peripheral/scb/cy_scb_i2c.h"
 832              		.file 11 "Generated_Source\\PSoC6\\pdl\\drivers/peripheral/scb/cy_scb_uart.h"
 833              		.file 12 "Generated_Source\\PSoC6\\pdl\\middleware/ble/cy_ble_stack.h"
 834              		.file 13 "Generated_Source\\PSoC6\\pdl\\middleware/ble/cy_ble_stack_host_main.h"
 835              		.file 14 "Generated_Source\\PSoC6\\pdl\\middleware/ble/cy_ble_stack_gatt.h"
 836              		.file 15 "Generated_Source\\PSoC6\\pdl\\middleware/ble/cy_ble_stack_gap_central.h"
 837              		.file 16 "Generated_Source\\PSoC6\\pdl\\middleware/ble/cy_ble_stack_gatt_client.h"
 838              		.file 17 "Generated_Source\\PSoC6\\pdl\\middleware/ble/cy_ble_custom.h"
 839              		.file 18 "Generated_Source\\PSoC6\\pdl\\middleware/ble/cy_ble_event_handler.h"
 840              		.file 19 "Generated_Source\\PSoC6\\pdl\\rtos/FreeRTOS/10.0.1/Source/portable/GCC/CM4F/portmacro.h"
 841              		.file 20 "Generated_Source\\PSoC6\\pdl\\rtos/FreeRTOS/10.0.1/Source/include/queue.h"
 842              		.file 21 "Generated_Source\\PSoC6\\pdl\\rtos/FreeRTOS/10.0.1/Source/include/semphr.h"
 843              		.file 22 "BLETask.h"
 844              		.file 23 "Generated_Source\\PSoC6\\pdl\\cmsis/include/core_cm4.h"
 845              		.file 24 "Generated_Source\\PSoC6/UART.h"
 846              		.file 25 "Generated_Source\\PSoC6/I2C_1.h"
ARM GAS  C:\Users\Austina\AppData\Local\Temp\ccmbhoja.s 			page 53


 847              		.file 26 "c:\\program files (x86)\\cypress\\psoc creator\\4.4\\psoc creator\\import\\gnu\\arm\\5.4
 848              		.file 27 "<built-in>"
 849              		.file 28 "c:\\program files (x86)\\cypress\\psoc creator\\4.4\\psoc creator\\import\\gnu\\arm\\5.4
 850              		.file 29 "Generated_Source\\PSoC6\\pdl\\middleware/ble/cy_ble_gatt.h"
 851              		.file 30 "Generated_Source\\PSoC6/BLE.h"
 852              		.file 31 "Generated_Source\\PSoC6\\pdl\\middleware/ble/cy_ble.h"