ARM GAS  C:\Users\Austina\AppData\Local\Temp\cc4AgRFe.s 			page 1


   1              		.syntax unified
   2              		.cpu cortex-m0plus
   3              		.fpu softvfp
   4              		.eabi_attribute 20, 1
   5              		.eabi_attribute 21, 1
   6              		.eabi_attribute 23, 3
   7              		.eabi_attribute 24, 1
   8              		.eabi_attribute 25, 1
   9              		.eabi_attribute 26, 1
  10              		.eabi_attribute 30, 1
  11              		.eabi_attribute 34, 0
  12              		.eabi_attribute 18, 4
  13              		.thumb
  14              		.syntax unified
  15              		.file	"CapSense_TMG.c"
  16              		.text
  17              	.Ltext0:
  18              		.cfi_sections	.debug_frame
  19              		.section	.text.CapSense_TMG_DecodeAllGestures,"ax",%progbits
  20              		.align	2
  21              		.global	CapSense_TMG_DecodeAllGestures
  22              		.code	16
  23              		.thumb_func
  24              		.type	CapSense_TMG_DecodeAllGestures, %function
  25              	CapSense_TMG_DecodeAllGestures:
  26              	.LFB0:
  27              		.file 1 "Generated_Source\\PSoC6\\CapSense_TMG.c"
   1:Generated_Source\PSoC6/CapSense_TMG.c **** /*******************************************************************************
   2:Generated_Source\PSoC6/CapSense_TMG.c **** * File Name: CapSense_TMG.c
   3:Generated_Source\PSoC6/CapSense_TMG.c **** * Version 2.0
   4:Generated_Source\PSoC6/CapSense_TMG.c **** *
   5:Generated_Source\PSoC6/CapSense_TMG.c **** * Description:
   6:Generated_Source\PSoC6/CapSense_TMG.c **** *  This file provides the source code of the API for the CapSense TMG component.
   7:Generated_Source\PSoC6/CapSense_TMG.c **** *
   8:Generated_Source\PSoC6/CapSense_TMG.c **** ********************************************************************************
   9:Generated_Source\PSoC6/CapSense_TMG.c **** * Copyright 2014, Cypress Semiconductor Corporation.  All rights reserved.
  10:Generated_Source\PSoC6/CapSense_TMG.c **** * You may use this file only in accordance with the license, terms, conditions,
  11:Generated_Source\PSoC6/CapSense_TMG.c **** * disclaimers, and limitations in the end user license agreement accompanying
  12:Generated_Source\PSoC6/CapSense_TMG.c **** * the software package with which this file was provided.
  13:Generated_Source\PSoC6/CapSense_TMG.c **** *******************************************************************************/
  14:Generated_Source\PSoC6/CapSense_TMG.c **** 
  15:Generated_Source\PSoC6/CapSense_TMG.c **** #include "CapSense_TMG.h"
  16:Generated_Source\PSoC6/CapSense_TMG.c **** 
  17:Generated_Source\PSoC6/CapSense_TMG.c **** 
  18:Generated_Source\PSoC6/CapSense_TMG.c **** /*******************************************************************************
  19:Generated_Source\PSoC6/CapSense_TMG.c **** * Function Name: CapSense_TMG_DecodeAllGestures
  20:Generated_Source\PSoC6/CapSense_TMG.c **** ********************************************************************************
  21:Generated_Source\PSoC6/CapSense_TMG.c **** *
  22:Generated_Source\PSoC6/CapSense_TMG.c **** * Summary:
  23:Generated_Source\PSoC6/CapSense_TMG.c **** *  Decodes all enabled gestures in the customizer and returns the detected
  24:Generated_Source\PSoC6/CapSense_TMG.c **** *  gesture code.
  25:Generated_Source\PSoC6/CapSense_TMG.c **** *  CapSense_TMG_InitGestures and CapSense_TMG_TimerEnableInt has to be
  26:Generated_Source\PSoC6/CapSense_TMG.c **** *  called once prior calling this or any other API for gesture decoding.
  27:Generated_Source\PSoC6/CapSense_TMG.c **** *
  28:Generated_Source\PSoC6/CapSense_TMG.c **** * Parameters:
  29:Generated_Source\PSoC6/CapSense_TMG.c **** *  touchNumber: Number of fingers on the trackpad. Valid range 0-2.
  30:Generated_Source\PSoC6/CapSense_TMG.c **** *  currentTimestamp : Current timestamp value.
ARM GAS  C:\Users\Austina\AppData\Local\Temp\cc4AgRFe.s 			page 2


  31:Generated_Source\PSoC6/CapSense_TMG.c **** *  pos: Pointer to structure with coordinates of touches.
  32:Generated_Source\PSoC6/CapSense_TMG.c **** *
  33:Generated_Source\PSoC6/CapSense_TMG.c **** * Return:
  34:Generated_Source\PSoC6/CapSense_TMG.c **** *  Detected gesture code.
  35:Generated_Source\PSoC6/CapSense_TMG.c **** *
  36:Generated_Source\PSoC6/CapSense_TMG.c **** *******************************************************************************/
  37:Generated_Source\PSoC6/CapSense_TMG.c **** uint32_t CapSense_TMG_DecodeAllGestures(uint32_t touchNumber, uint32_t currentTimestamp, const CapS
  38:Generated_Source\PSoC6/CapSense_TMG.c **** {
  28              		.loc 1 38 0
  29              		.cfi_startproc
  30              		@ args = 0, pretend = 0, frame = 0
  31              		@ frame_needed = 0, uses_anonymous_args = 0
  32              	.LVL0:
  33 0000 F8B5     		push	{r3, r4, r5, r6, r7, lr}
  34              		.cfi_def_cfa_offset 24
  35              		.cfi_offset 3, -24
  36              		.cfi_offset 4, -20
  37              		.cfi_offset 5, -16
  38              		.cfi_offset 6, -12
  39              		.cfi_offset 7, -8
  40              		.cfi_offset 14, -4
  41 0002 0E00     		movs	r6, r1
  42 0004 1700     		movs	r7, r2
  43              	.LVL1:
  39:Generated_Source\PSoC6/CapSense_TMG.c ****     uint32_t gestureID = CapSense_TMG_NO_GESTURE;
  40:Generated_Source\PSoC6/CapSense_TMG.c ****     #if(0u != CapSense_TMG_GESTURES_ENABLED)
  41:Generated_Source\PSoC6/CapSense_TMG.c ****         /* Variable for detected click gestures */
  42:Generated_Source\PSoC6/CapSense_TMG.c ****         uint32_t clickGesture = CapSense_TMG_NO_GESTURE;
  43:Generated_Source\PSoC6/CapSense_TMG.c **** 
  44:Generated_Source\PSoC6/CapSense_TMG.c ****         /* Variable for detected single touch gestures */
  45:Generated_Source\PSoC6/CapSense_TMG.c ****         uint32_t stGesture = CapSense_TMG_NO_GESTURE;
  46:Generated_Source\PSoC6/CapSense_TMG.c **** 
  47:Generated_Source\PSoC6/CapSense_TMG.c ****         /* Variable for detected double touch gestures */
  48:Generated_Source\PSoC6/CapSense_TMG.c ****         uint32_t dtGesture = CapSense_TMG_NO_GESTURE;
  49:Generated_Source\PSoC6/CapSense_TMG.c **** 
  50:Generated_Source\PSoC6/CapSense_TMG.c ****         #if (CapSense_TMG_ROTATE_ENABLED != 0u)
  51:Generated_Source\PSoC6/CapSense_TMG.c ****             static uint32_t rotationActive = 0u;
  52:Generated_Source\PSoC6/CapSense_TMG.c ****         #endif /* (CapSense_TMG_ROTATE_ENABLED != 0u) */
  53:Generated_Source\PSoC6/CapSense_TMG.c **** 
  54:Generated_Source\PSoC6/CapSense_TMG.c ****         #if (CapSense_TMG_EDGE_SWIPE_ENABLED != 0u)
  55:Generated_Source\PSoC6/CapSense_TMG.c ****             static uint32_t edgeTimeoutStamp = 0u;
  56:Generated_Source\PSoC6/CapSense_TMG.c ****             uint32_t deltaTimeoutStamp = 0u;
  57:Generated_Source\PSoC6/CapSense_TMG.c ****         #endif /* (CapSense_TMG_EDGE_SWIPE_ENABLED != 0u) */
  58:Generated_Source\PSoC6/CapSense_TMG.c **** 
  59:Generated_Source\PSoC6/CapSense_TMG.c ****         #if ((CapSense_TMG_EDGE_SWIPE_ENABLED == 1u) && ((CapSense_TMG_CLICKS_ENABLED == 1u) ||\
  60:Generated_Source\PSoC6/CapSense_TMG.c ****                                                              (CapSense_TMG_ST_SCROLLS_ENABLED == 1u
  61:Generated_Source\PSoC6/CapSense_TMG.c ****                                                              (CapSense_TMG_ROTATE_ENABLED == 1u)))
  62:Generated_Source\PSoC6/CapSense_TMG.c ****             static uint32_t edgeSwipeActive = 0u;
  63:Generated_Source\PSoC6/CapSense_TMG.c ****         #endif /* ((CapSense_TMG_EDGE_SWIPE_ENABLED == 1u) && ((CapSense_TMG_CLICKS_ENABLED == 1u) 
  64:Generated_Source\PSoC6/CapSense_TMG.c ****                                                                    (CapSense_TMG_ST_SCROLLS_ENABLED
  65:Generated_Source\PSoC6/CapSense_TMG.c ****                                                                    (CapSense_TMG_ROTATE_ENABLED == 
  66:Generated_Source\PSoC6/CapSense_TMG.c **** 
  67:Generated_Source\PSoC6/CapSense_TMG.c ****         #if ((CapSense_TMG_CLICKS_ENABLED == 1u) && ((CapSense_TMG_EDGE_SWIPE_ENABLED == 1u) ||\
  68:Generated_Source\PSoC6/CapSense_TMG.c ****                                                          (CapSense_TMG_ST_SCROLLS_ENABLED == 1u) ||
  69:Generated_Source\PSoC6/CapSense_TMG.c ****                                                          (CapSense_TMG_ROTATE_ENABLED == 1u)))
  70:Generated_Source\PSoC6/CapSense_TMG.c ****             static uint32_t clickAndDragActive = 0u;
  71:Generated_Source\PSoC6/CapSense_TMG.c ****         #endif /* ((CapSense_TMG_CLICKS_ENABLED == 1u) && ((CapSense_TMG_EDGE_SWIPE_ENABLED == 1u) 
ARM GAS  C:\Users\Austina\AppData\Local\Temp\cc4AgRFe.s 			page 3


  72:Generated_Source\PSoC6/CapSense_TMG.c ****                                                                (CapSense_TMG_ST_SCROLLS_ENABLED == 
  73:Generated_Source\PSoC6/CapSense_TMG.c ****                                                                (CapSense_TMG_ROTATE_ENABLED == 1u))
  74:Generated_Source\PSoC6/CapSense_TMG.c **** 
  75:Generated_Source\PSoC6/CapSense_TMG.c ****         #if (CapSense_TMG_EDGE_SWIPE_ENABLED == 1u)
  76:Generated_Source\PSoC6/CapSense_TMG.c ****             uint32_t edgeSwipeGesture = CapSense_TMG_NO_GESTURE;
  77:Generated_Source\PSoC6/CapSense_TMG.c ****         #endif /* (CapSense_TMG_EDGE_SWIPE_ENABLED == 1u) */
  78:Generated_Source\PSoC6/CapSense_TMG.c **** 
  79:Generated_Source\PSoC6/CapSense_TMG.c ****         #if ((CapSense_TMG_CLICKS_ENABLED != 0u) || (CapSense_TMG_EDGE_SWIPE_ENABLED != 0u))
  80:Generated_Source\PSoC6/CapSense_TMG.c ****             clickGesture = Gesture_DecodeAllClickGestures((uint8_t)touchNumber, currentTimestamp, p
  44              		.loc 1 80 0
  45 0006 C4B2     		uxtb	r4, r0
  46 0008 2000     		movs	r0, r4
  47              	.LVL2:
  48 000a FFF7FEFF 		bl	Gesture_DecodeAllClickGestures
  49              	.LVL3:
  50 000e 0500     		movs	r5, r0
  51              	.LVL4:
  81:Generated_Source\PSoC6/CapSense_TMG.c ****         #endif /* ((CapSense_TMG_CLICKS_ENABLED != 0u) || (CapSense_TMG_EDGE_SWIPE_ENABLED != 0u)) 
  82:Generated_Source\PSoC6/CapSense_TMG.c **** 
  83:Generated_Source\PSoC6/CapSense_TMG.c ****         #if (CapSense_TMG_CLICKS_ENABLED != 0u)
  84:Generated_Source\PSoC6/CapSense_TMG.c ****             gestureID = clickGesture;
  85:Generated_Source\PSoC6/CapSense_TMG.c ****             #if ((CapSense_TMG_EDGE_SWIPE_ENABLED == 1u) || (CapSense_TMG_ST_SCROLLS_ENABLED == 1u)
  86:Generated_Source\PSoC6/CapSense_TMG.c ****             if (clickGesture == CapSense_TMG_CLICK_AND_DRAG)
  87:Generated_Source\PSoC6/CapSense_TMG.c ****             {
  88:Generated_Source\PSoC6/CapSense_TMG.c ****                 clickAndDragActive = 1u;
  89:Generated_Source\PSoC6/CapSense_TMG.c ****             }
  90:Generated_Source\PSoC6/CapSense_TMG.c ****             #endif /* ((CapSense_TMG_CLICKS_ENABLED == 1u) || (CapSense_TMG_ST_SCROLLS_ENABLED == 1
  91:Generated_Source\PSoC6/CapSense_TMG.c ****         #endif /* (CapSense_TMG_CLICKS_ENABLED != 0u) */
  92:Generated_Source\PSoC6/CapSense_TMG.c **** 
  93:Generated_Source\PSoC6/CapSense_TMG.c ****         #if (CapSense_TMG_ROTATE_ENABLED == 1u)
  94:Generated_Source\PSoC6/CapSense_TMG.c ****             stGesture = Gesture_DecodeSTRotateGestures((uint8_t)touchNumber, currentTimestamp, pos)
  95:Generated_Source\PSoC6/CapSense_TMG.c **** 
  96:Generated_Source\PSoC6/CapSense_TMG.c ****             #if ((CapSense_TMG_EDGE_SWIPE_ENABLED == 1u) || (CapSense_TMG_CLICKS_ENABLED == 1u))
  97:Generated_Source\PSoC6/CapSense_TMG.c ****                 #if ((CapSense_TMG_EDGE_SWIPE_ENABLED == 1u) && (CapSense_TMG_CLICKS_ENABLED == 1u)
  98:Generated_Source\PSoC6/CapSense_TMG.c ****                     if ((clickAndDragActive == 1u) || (edgeSwipeActive == 1u))
  99:Generated_Source\PSoC6/CapSense_TMG.c ****                 #elif (CapSense_TMG_CLICKS_ENABLED == 1u)
 100:Generated_Source\PSoC6/CapSense_TMG.c ****                     if (clickAndDragActive == 1u)
 101:Generated_Source\PSoC6/CapSense_TMG.c ****                 #elif (CapSense_TMG_EDGE_SWIPE_ENABLED == 1u)
 102:Generated_Source\PSoC6/CapSense_TMG.c ****                     if (edgeSwipeActive == 1u)
 103:Generated_Source\PSoC6/CapSense_TMG.c ****                 #endif /* ((CapSense_TMG_EDGE_SWIPE_ENABLED == 1u) && (CapSense_TMG_CLICKS_ENABLED 
 104:Generated_Source\PSoC6/CapSense_TMG.c ****                 {
 105:Generated_Source\PSoC6/CapSense_TMG.c ****                     stGesture = CapSense_TMG_NO_GESTURE;
 106:Generated_Source\PSoC6/CapSense_TMG.c ****                 }
 107:Generated_Source\PSoC6/CapSense_TMG.c ****             #endif /* ((CapSense_TMG_EDGE_SWIPE_ENABLED == 1u) || (CapSense_TMG_CLICKS_ENABLED == 1
 108:Generated_Source\PSoC6/CapSense_TMG.c ****             if ((stGesture == CapSense_TMG_ROTATE_CW) || (stGesture == CapSense_TMG_ROTATE_CCW))
 109:Generated_Source\PSoC6/CapSense_TMG.c ****             {
 110:Generated_Source\PSoC6/CapSense_TMG.c ****                 rotationActive = CapSense_TMG_ROTATE_TO_OTHER_DEBOUNCE;
 111:Generated_Source\PSoC6/CapSense_TMG.c ****             }
 112:Generated_Source\PSoC6/CapSense_TMG.c ****             else
 113:Generated_Source\PSoC6/CapSense_TMG.c ****             {
 114:Generated_Source\PSoC6/CapSense_TMG.c ****                 if (rotationActive > 0u)
 115:Generated_Source\PSoC6/CapSense_TMG.c ****                 {
 116:Generated_Source\PSoC6/CapSense_TMG.c ****                     rotationActive--;
 117:Generated_Source\PSoC6/CapSense_TMG.c ****                 }
 118:Generated_Source\PSoC6/CapSense_TMG.c ****             }
 119:Generated_Source\PSoC6/CapSense_TMG.c **** 
 120:Generated_Source\PSoC6/CapSense_TMG.c ****             if (((stGesture == CapSense_TMG_NO_GESTURE)||(stGesture == CapSense_TMG_TOUCHDOWN) \
ARM GAS  C:\Users\Austina\AppData\Local\Temp\cc4AgRFe.s 			page 4


 121:Generated_Source\PSoC6/CapSense_TMG.c ****                                             ||(stGesture == CapSense_TMG_LIFT_OFF))&&(rotationActiv
 122:Generated_Source\PSoC6/CapSense_TMG.c ****         #else
 123:Generated_Source\PSoC6/CapSense_TMG.c ****             if ((stGesture == CapSense_TMG_NO_GESTURE)||(stGesture == CapSense_TMG_TOUCHDOWN) \
 124:Generated_Source\PSoC6/CapSense_TMG.c ****                                             ||(stGesture == CapSense_TMG_LIFT_OFF))
 125:Generated_Source\PSoC6/CapSense_TMG.c ****         #endif /* (CapSense_TMG_ROTATE_ENABLED == 1u) */
 126:Generated_Source\PSoC6/CapSense_TMG.c ****         {
 127:Generated_Source\PSoC6/CapSense_TMG.c ****             #if (CapSense_TMG_ST_SCROLLS_ENABLED == 1u)
 128:Generated_Source\PSoC6/CapSense_TMG.c ****                 #if ((CapSense_TMG_EDGE_SWIPE_ENABLED == 1u) && (CapSense_TMG_CLICKS_ENABLED == 1u)
 129:Generated_Source\PSoC6/CapSense_TMG.c ****                     if ((clickAndDragActive == 0u)&&(edgeSwipeActive == 0u))
 130:Generated_Source\PSoC6/CapSense_TMG.c ****                 #elif (CapSense_TMG_CLICKS_ENABLED == 1u)
 131:Generated_Source\PSoC6/CapSense_TMG.c ****                     if (clickAndDragActive == 0u)
 132:Generated_Source\PSoC6/CapSense_TMG.c ****                 #elif (CapSense_TMG_EDGE_SWIPE_ENABLED == 1u)
 133:Generated_Source\PSoC6/CapSense_TMG.c ****                     if (edgeSwipeActive == 0u)
 134:Generated_Source\PSoC6/CapSense_TMG.c ****                 #else
 135:Generated_Source\PSoC6/CapSense_TMG.c ****                     if (1u == 1u)
 136:Generated_Source\PSoC6/CapSense_TMG.c ****                 #endif /* ((CapSense_TMG_EDGE_SWIPE_ENABLED == 1u) && (CapSense_TMG_CLICKS_ENABLED 
 137:Generated_Source\PSoC6/CapSense_TMG.c ****                 {
 138:Generated_Source\PSoC6/CapSense_TMG.c ****                     stGesture = Gesture_DecodeSTScrollGestures((uint8_t)touchNumber, currentTimesta
 139:Generated_Source\PSoC6/CapSense_TMG.c ****                 }
 140:Generated_Source\PSoC6/CapSense_TMG.c ****             #elif (CapSense_TMG_FLICKS_ENABLED == 1u)
 141:Generated_Source\PSoC6/CapSense_TMG.c ****                 stGesture = Gesture_DecodeFlickGestures((uint8_t)touchNumber, currentTimestamp, pos
  52              		.loc 1 141 0
  53 0010 3A00     		movs	r2, r7
  54 0012 3100     		movs	r1, r6
  55 0014 2000     		movs	r0, r4
  56              	.LVL5:
  57 0016 FFF7FEFF 		bl	Gesture_DecodeFlickGestures
  58              	.LVL6:
 142:Generated_Source\PSoC6/CapSense_TMG.c ****             #endif /* (CapSense_TMG_ST_SCROLLS_ENABLED == 1u) */
 143:Generated_Source\PSoC6/CapSense_TMG.c ****         }
 144:Generated_Source\PSoC6/CapSense_TMG.c **** 
 145:Generated_Source\PSoC6/CapSense_TMG.c ****         #if (CapSense_TMG_EDGE_SWIPE_ENABLED == 1u)
 146:Generated_Source\PSoC6/CapSense_TMG.c ****             edgeSwipeGesture = Gesture_DecodeEdgeSwipeGestures((uint8_t)touchNumber, currentTimesta
 147:Generated_Source\PSoC6/CapSense_TMG.c **** 
 148:Generated_Source\PSoC6/CapSense_TMG.c ****             #if (CapSense_TMG_ROTATE_ENABLED == 1u)
 149:Generated_Source\PSoC6/CapSense_TMG.c ****                 if (((edgeSwipeGesture != CapSense_TMG_NO_GESTURE) && \
 150:Generated_Source\PSoC6/CapSense_TMG.c ****                     (edgeSwipeGesture != CapSense_TMG_TOUCHDOWN) && (edgeSwipeGesture != CapSense_T
 151:Generated_Source\PSoC6/CapSense_TMG.c ****                                                                                             && (rot
 152:Generated_Source\PSoC6/CapSense_TMG.c ****             #else
 153:Generated_Source\PSoC6/CapSense_TMG.c ****                 if ((edgeSwipeGesture != CapSense_TMG_NO_GESTURE) && \
 154:Generated_Source\PSoC6/CapSense_TMG.c ****                     (edgeSwipeGesture != CapSense_TMG_TOUCHDOWN) && (edgeSwipeGesture != CapSense_T
 155:Generated_Source\PSoC6/CapSense_TMG.c ****             #endif /* (CapSense_TMG_ROTATE_ENABLED == 1u) */
 156:Generated_Source\PSoC6/CapSense_TMG.c ****             {
 157:Generated_Source\PSoC6/CapSense_TMG.c ****                 stGesture = edgeSwipeGesture;
 158:Generated_Source\PSoC6/CapSense_TMG.c ****                 #if ((CapSense_TMG_EDGE_SWIPE_ENABLED == 1u) && ((CapSense_TMG_CLICKS_ENABLED == 1u
 159:Generated_Source\PSoC6/CapSense_TMG.c ****                                                                      (CapSense_TMG_ST_SCROLLS_ENABL
 160:Generated_Source\PSoC6/CapSense_TMG.c ****                                                                      (CapSense_TMG_ROTATE_ENABLED =
 161:Generated_Source\PSoC6/CapSense_TMG.c ****                     edgeSwipeActive = 1u;
 162:Generated_Source\PSoC6/CapSense_TMG.c ****                 #endif /* ((CapSense_TMG_EDGE_SWIPE_ENABLED == 1u) && ((CapSense_TMG_CLICKS_ENABLED
 163:Generated_Source\PSoC6/CapSense_TMG.c ****                                                                            (CapSense_TMG_ST_SCROLLS
 164:Generated_Source\PSoC6/CapSense_TMG.c ****                                                                            (CapSense_TMG_ROTATE_ENA
 165:Generated_Source\PSoC6/CapSense_TMG.c ****             }
 166:Generated_Source\PSoC6/CapSense_TMG.c ****         #endif /* (CapSense_TMG_EDGE_SWIPE_ENABLED == 1u) */
 167:Generated_Source\PSoC6/CapSense_TMG.c **** 
 168:Generated_Source\PSoC6/CapSense_TMG.c ****         if ((stGesture != CapSense_TMG_NO_GESTURE)&&(stGesture != CapSense_TMG_TOUCHDOWN) \
  59              		.loc 1 168 0
  60 001a 0028     		cmp	r0, #0
ARM GAS  C:\Users\Austina\AppData\Local\Temp\cc4AgRFe.s 			page 5


  61 001c 04D0     		beq	.L2
  62              		.loc 1 168 0 is_stmt 0 discriminator 1
  63 001e 2F28     		cmp	r0, #47
  64 0020 02D0     		beq	.L2
 169:Generated_Source\PSoC6/CapSense_TMG.c ****                                             &&(stGesture != CapSense_TMG_LIFT_OFF))
  65              		.loc 1 169 0 is_stmt 1
  66 0022 4F28     		cmp	r0, #79
  67 0024 00D0     		beq	.L2
 170:Generated_Source\PSoC6/CapSense_TMG.c ****         {
 171:Generated_Source\PSoC6/CapSense_TMG.c ****             gestureID = stGesture;
  68              		.loc 1 171 0
  69 0026 0500     		movs	r5, r0
  70              	.LVL7:
  71              	.L2:
 172:Generated_Source\PSoC6/CapSense_TMG.c ****         }
 173:Generated_Source\PSoC6/CapSense_TMG.c ****         else if ((clickGesture == CapSense_TMG_TOUCHDOWN) || (clickGesture == CapSense_TMG_LIFT_OFF
 174:Generated_Source\PSoC6/CapSense_TMG.c ****         {
 175:Generated_Source\PSoC6/CapSense_TMG.c ****             #if(CapSense_TMG_CLICKS_ENABLED != 0u)
 176:Generated_Source\PSoC6/CapSense_TMG.c ****                 gestureID = clickGesture;
 177:Generated_Source\PSoC6/CapSense_TMG.c ****             #else
 178:Generated_Source\PSoC6/CapSense_TMG.c ****                 gestureID = CapSense_TMG_NO_GESTURE;
 179:Generated_Source\PSoC6/CapSense_TMG.c ****             #endif /* (CapSense_TMG_CLICKS_ENABLED != 0u) */
 180:Generated_Source\PSoC6/CapSense_TMG.c ****         }
 181:Generated_Source\PSoC6/CapSense_TMG.c ****         else
 182:Generated_Source\PSoC6/CapSense_TMG.c ****         {
 183:Generated_Source\PSoC6/CapSense_TMG.c ****             /* Do not change gestureID */
 184:Generated_Source\PSoC6/CapSense_TMG.c ****         }
 185:Generated_Source\PSoC6/CapSense_TMG.c **** 
 186:Generated_Source\PSoC6/CapSense_TMG.c ****         dtGesture = CapSense_TMG_DecodeZoomGestures(touchNumber, currentTimestamp, pos);
 187:Generated_Source\PSoC6/CapSense_TMG.c ****         if ((dtGesture == CapSense_TMG_NO_GESTURE) || (dtGesture == CapSense_TMG_TOUCHDOWN) \
 188:Generated_Source\PSoC6/CapSense_TMG.c ****                                             || (dtGesture == CapSense_TMG_LIFT_OFF))
 189:Generated_Source\PSoC6/CapSense_TMG.c ****         {
 190:Generated_Source\PSoC6/CapSense_TMG.c ****             dtGesture = CapSense_TMG_DecodeDTScrollGestures(touchNumber, currentTimestamp, pos);
 191:Generated_Source\PSoC6/CapSense_TMG.c ****         }
 192:Generated_Source\PSoC6/CapSense_TMG.c ****         else
 193:Generated_Source\PSoC6/CapSense_TMG.c ****         {
 194:Generated_Source\PSoC6/CapSense_TMG.c ****             (void)CapSense_TMG_DecodeDTScrollGestures(touchNumber, currentTimestamp, pos);
 195:Generated_Source\PSoC6/CapSense_TMG.c ****         }
 196:Generated_Source\PSoC6/CapSense_TMG.c **** 
 197:Generated_Source\PSoC6/CapSense_TMG.c ****         if ((dtGesture != CapSense_TMG_NO_GESTURE) && (dtGesture != CapSense_TMG_TOUCHDOWN) \
 198:Generated_Source\PSoC6/CapSense_TMG.c ****                                             && (dtGesture != CapSense_TMG_LIFT_OFF))
 199:Generated_Source\PSoC6/CapSense_TMG.c ****         {
 200:Generated_Source\PSoC6/CapSense_TMG.c ****             gestureID = dtGesture;
 201:Generated_Source\PSoC6/CapSense_TMG.c ****         }
 202:Generated_Source\PSoC6/CapSense_TMG.c **** 
 203:Generated_Source\PSoC6/CapSense_TMG.c ****         #if (CapSense_TMG_EDGE_SWIPE_ENABLED != 0u)
 204:Generated_Source\PSoC6/CapSense_TMG.c ****             if((gestureID >= CapSense_TMG_EDGE_SWIPE_LEFT)&&(gestureID <= CapSense_TMG_EDGE_SWIPE_B
 205:Generated_Source\PSoC6/CapSense_TMG.c ****             {
 206:Generated_Source\PSoC6/CapSense_TMG.c ****                 edgeTimeoutStamp = currentTimestamp;
 207:Generated_Source\PSoC6/CapSense_TMG.c ****             }
 208:Generated_Source\PSoC6/CapSense_TMG.c ****         #endif /* (CapSense_TMG_EDGE_SWIPE_ENABLED != 0u) */
 209:Generated_Source\PSoC6/CapSense_TMG.c **** 
 210:Generated_Source\PSoC6/CapSense_TMG.c ****         if ((clickGesture == CapSense_TMG_LIFT_OFF) || (clickGesture == CapSense_TMG_TOUCHDOWN) || 
 211:Generated_Source\PSoC6/CapSense_TMG.c ****                 (gestureID == CapSense_TMG_NO_GESTURE))
 212:Generated_Source\PSoC6/CapSense_TMG.c ****         {
 213:Generated_Source\PSoC6/CapSense_TMG.c ****             #if ((CapSense_TMG_CLICKS_ENABLED == 1u) && ((CapSense_TMG_EDGE_SWIPE_ENABLED == 1u) ||
 214:Generated_Source\PSoC6/CapSense_TMG.c ****                                                              (CapSense_TMG_ST_SCROLLS_ENABLED == 1u
ARM GAS  C:\Users\Austina\AppData\Local\Temp\cc4AgRFe.s 			page 6


 215:Generated_Source\PSoC6/CapSense_TMG.c ****                                                              (CapSense_TMG_ROTATE_ENABLED == 1u)))
 216:Generated_Source\PSoC6/CapSense_TMG.c ****                 if(0u != clickAndDragActive)
 217:Generated_Source\PSoC6/CapSense_TMG.c ****                 {
 218:Generated_Source\PSoC6/CapSense_TMG.c ****                     clickAndDragActive = 0u;
 219:Generated_Source\PSoC6/CapSense_TMG.c ****                 }
 220:Generated_Source\PSoC6/CapSense_TMG.c ****             #endif /* ((CapSense_TMG_CLICKS_ENABLED == 1u) && ((CapSense_TMG_EDGE_SWIPE_ENABLED == 
 221:Generated_Source\PSoC6/CapSense_TMG.c ****                                                                    (CapSense_TMG_ST_SCROLLS_ENABLED
 222:Generated_Source\PSoC6/CapSense_TMG.c ****                                                                    (CapSense_TMG_ROTATE_ENABLED == 
 223:Generated_Source\PSoC6/CapSense_TMG.c **** 
 224:Generated_Source\PSoC6/CapSense_TMG.c ****             #if (CapSense_TMG_EDGE_SWIPE_ENABLED != 0u)
 225:Generated_Source\PSoC6/CapSense_TMG.c ****             deltaTimeoutStamp = currentTimestamp - edgeTimeoutStamp;
 226:Generated_Source\PSoC6/CapSense_TMG.c ****             if ((clickGesture == CapSense_TMG_LIFT_OFF) || (deltaTimeoutStamp >= CapSense_TMG_EDGE_
 227:Generated_Source\PSoC6/CapSense_TMG.c ****             {
 228:Generated_Source\PSoC6/CapSense_TMG.c ****                 edgeTimeoutStamp = 0u;
 229:Generated_Source\PSoC6/CapSense_TMG.c ****                 #if ((CapSense_TMG_EDGE_SWIPE_ENABLED == 1u) && ((CapSense_TMG_CLICKS_ENABLED == 1u
 230:Generated_Source\PSoC6/CapSense_TMG.c ****                                                                             (CapSense_TMG_ST_SCROLL
 231:Generated_Source\PSoC6/CapSense_TMG.c ****                     if(0u != edgeSwipeActive)
 232:Generated_Source\PSoC6/CapSense_TMG.c ****                     {
 233:Generated_Source\PSoC6/CapSense_TMG.c ****                         edgeSwipeActive = 0u;
 234:Generated_Source\PSoC6/CapSense_TMG.c ****                     }
 235:Generated_Source\PSoC6/CapSense_TMG.c **** 
 236:Generated_Source\PSoC6/CapSense_TMG.c ****                 #endif /* ((CapSense_TMG_EDGE_SWIPE_ENABLED == 1u) && ((CapSense_TMG_CLICKS_ENABLED
 237:Generated_Source\PSoC6/CapSense_TMG.c ****                                                                             (CapSense_TMG_ST_SCROLL
 238:Generated_Source\PSoC6/CapSense_TMG.c ****             }
 239:Generated_Source\PSoC6/CapSense_TMG.c ****             #endif /* (CapSense_TMG_EDGE_SWIPE_ENABLED != 0u) */
 240:Generated_Source\PSoC6/CapSense_TMG.c ****         }
 241:Generated_Source\PSoC6/CapSense_TMG.c ****     #endif /* (0u != CapSense_TMG_GESTURES_ENABLED) */
 242:Generated_Source\PSoC6/CapSense_TMG.c **** 
 243:Generated_Source\PSoC6/CapSense_TMG.c ****     return (gestureID);
 244:Generated_Source\PSoC6/CapSense_TMG.c **** }
  72              		.loc 1 244 0
  73 0028 2800     		movs	r0, r5
  74              	.LVL8:
  75              		@ sp needed
  76              	.LVL9:
  77              	.LVL10:
  78              	.LVL11:
  79 002a F8BD     		pop	{r3, r4, r5, r6, r7, pc}
  80              		.cfi_endproc
  81              	.LFE0:
  82              		.size	CapSense_TMG_DecodeAllGestures, .-CapSense_TMG_DecodeAllGestures
  83              		.section	.text.CapSense_TMG_BallisticsMultiplier,"ax",%progbits
  84              		.align	2
  85              		.global	CapSense_TMG_BallisticsMultiplier
  86              		.code	16
  87              		.thumb_func
  88              		.type	CapSense_TMG_BallisticsMultiplier, %function
  89              	CapSense_TMG_BallisticsMultiplier:
  90              	.LFB1:
 245:Generated_Source\PSoC6/CapSense_TMG.c **** 
 246:Generated_Source\PSoC6/CapSense_TMG.c **** 
 247:Generated_Source\PSoC6/CapSense_TMG.c **** /*******************************************************************************
 248:Generated_Source\PSoC6/CapSense_TMG.c **** * Function Name: CapSense_TMG_ballisticsMultiplier
 249:Generated_Source\PSoC6/CapSense_TMG.c **** ********************************************************************************
 250:Generated_Source\PSoC6/CapSense_TMG.c **** *
 251:Generated_Source\PSoC6/CapSense_TMG.c **** * Summary:
 252:Generated_Source\PSoC6/CapSense_TMG.c **** *  This API is to run the ballistic Multiplier.
ARM GAS  C:\Users\Austina\AppData\Local\Temp\cc4AgRFe.s 			page 7


 253:Generated_Source\PSoC6/CapSense_TMG.c **** *  CapSense_TMG_TimerEnableInt has to be called once prior calling this API.
 254:Generated_Source\PSoC6/CapSense_TMG.c **** *
 255:Generated_Source\PSoC6/CapSense_TMG.c **** * Parameters:
 256:Generated_Source\PSoC6/CapSense_TMG.c **** *   ballisticMultiplier: Pointer to the structure which contains API parameters.
 257:Generated_Source\PSoC6/CapSense_TMG.c **** *   currentTimestamp : Current timestamp value.
 258:Generated_Source\PSoC6/CapSense_TMG.c **** *   pos: Pointer to dX and dY coordinates.
 259:Generated_Source\PSoC6/CapSense_TMG.c **** *
 260:Generated_Source\PSoC6/CapSense_TMG.c **** * Return:
 261:Generated_Source\PSoC6/CapSense_TMG.c **** *  None
 262:Generated_Source\PSoC6/CapSense_TMG.c **** *
 263:Generated_Source\PSoC6/CapSense_TMG.c **** * Global Variables:
 264:Generated_Source\PSoC6/CapSense_TMG.c **** *  None
 265:Generated_Source\PSoC6/CapSense_TMG.c **** *
 266:Generated_Source\PSoC6/CapSense_TMG.c **** *******************************************************************************/
 267:Generated_Source\PSoC6/CapSense_TMG.c **** void CapSense_TMG_BallisticsMultiplier(const CapSense_TMG_BALLISTIC_MULT * ballisticMultiplier, uin
 268:Generated_Source\PSoC6/CapSense_TMG.c **** {
  91              		.loc 1 268 0
  92              		.cfi_startproc
  93              		@ args = 0, pretend = 0, frame = 0
  94              		@ frame_needed = 0, uses_anonymous_args = 0
  95              		@ link register save eliminated.
  96              	.LVL12:
 269:Generated_Source\PSoC6/CapSense_TMG.c ****     #if (CapSense_TMG_BALLISTICS_ENABLED == 1u)
 270:Generated_Source\PSoC6/CapSense_TMG.c ****         CapSense_TMG_BALLISTIC_MULT_INT ballisticsStrct;
 271:Generated_Source\PSoC6/CapSense_TMG.c ****         ballisticsStrct.paramStr = *ballisticMultiplier;
 272:Generated_Source\PSoC6/CapSense_TMG.c ****         ballisticsStrct.currentTimestamp = currentTimestamp;
 273:Generated_Source\PSoC6/CapSense_TMG.c ****         BallisticMultiplier(&ballisticsStrct, pos);
 274:Generated_Source\PSoC6/CapSense_TMG.c ****     #endif /* (CapSense_TMG_BALLISTICS_ENABLED == 1u) */
 275:Generated_Source\PSoC6/CapSense_TMG.c **** }
  97              		.loc 1 275 0
  98              		@ sp needed
  99 0000 7047     		bx	lr
 100              		.cfi_endproc
 101              	.LFE1:
 102              		.size	CapSense_TMG_BallisticsMultiplier, .-CapSense_TMG_BallisticsMultiplier
 103 0002 C046     		.text
 104              	.Letext0:
 105              		.file 2 "c:\\program files (x86)\\cypress\\psoc creator\\4.4\\psoc creator\\import\\gnu\\arm\\5.4.
 106              		.file 3 "c:\\program files (x86)\\cypress\\psoc creator\\4.4\\psoc creator\\import\\gnu\\arm\\5.4.
 107              		.file 4 "Generated_Source\\PSoC6\\CapSense_TMG.h"